(dp0
S'learn_scores'
p1
(lp2
F-382.0
aF-353.0
aF-393.0
aF-259.0
aF-336.0
aF-403.0
aF159.0
aF154.0
aF-321.0
aF-433.0
aF-414.0
aF-234.0
aF-397.0
aF-310.0
aF-379.0
aF-21.0
aF-400.0
aF-414.0
aF-359.0
aF-392.0
aF-436.0
aF-255.0
aF-436.0
aF-452.0
aF-366.0
aF-428.0
aF-314.0
aF-339.0
aF-348.0
aF-404.0
aF-18.0
aF-356.0
aF-366.0
aF-256.0
aF-366.0
aF-359.0
aF-42.0
aF161.0
aF-315.0
aF-432.0
aF55.0
aF-411.0
aF-394.0
aF11.0
aF132.0
aF-389.0
aF-70.0
aF-430.0
aF37.0
aF239.0
aF-385.0
aF-368.0
aF-428.0
aF-87.0
aF-290.0
aF-372.0
aF40.0
aF-357.0
aF-370.0
aF-358.0
aF-439.0
aF-438.0
aF-307.0
aF-366.0
aF-374.0
aF-351.0
aF-414.0
aF-428.0
aF-386.0
aF305.0
aF-279.0
aF-395.0
aF-395.0
aF-219.0
aF-234.0
aF-368.0
aF-342.0
aF-261.0
aF-438.0
aF-367.0
aF-427.0
aF-269.0
aF-309.0
aF-327.0
aF-317.0
aF-433.0
aF-273.0
aF-272.0
aF-429.0
aF212.0
aF-301.0
aF-421.0
aF-351.0
aF-388.0
aF-378.0
aF-884.0
aF-27.0
aF-438.0
aF-395.0
aF-331.0
asS'test_scores'
p3
(lp4
F-303.0
aF187.0
aF-330.0
aF-434.0
aF-423.0
aF-361.0
aF-334.0
aF-429.0
aF-386.0
aF-456.0
aF-402.0
aF-221.0
aF-405.0
aF-342.0
aF-436.0
asS'behavior_count'
p5
(dp6
I1
(dp7
S'FleeBehavior'
p8
(lp9
I53
aI22
aI13
aI54
aI1
aI0
aI18
aI17
aI4
aI1
aI0
aI3
aI2
aI1
aI1
aI7
aI1
aI1
aI1
aI1
aI0
aI2
aI0
aI0
aI1
aI1
aI0
aI3
aI1
aI4
aI31
aI14
aI28
aI30
aI2
aI4
aI48
aI40
aI3
aI0
aI4
aI1
aI2
aI14
aI30
aI15
aI56
aI0
aI27
aI71
aI0
aI3
aI1
aI6
aI13
aI28
aI28
aI13
aI0
aI0
aI0
aI0
aI1
aI0
aI0
aI1
aI0
aI1
aI2
aI5
aI4
aI2
aI0
aI4
aI12
aI2
aI3
aI8
aI0
aI3
aI0
aI2
aI5
aI0
aI1
aI0
aI3
aI2
aI0
aI41
aI2
aI1
aI0
aI6
aI3
aI2
aI0
aI0
aI1
aI0
aI0
aI0
aI0
aI0
aI0
aI0
aI0
aI0
aI0
aI0
aI0
aI0
aI0
aI0
aI0
asS'PursueBehavior'
p10
(lp11
I8
aI1
aI1
aI11
aI1
aI0
aI5
aI42
aI7
aI0
aI0
aI2
aI3
aI0
aI1
aI32
aI0
aI0
aI0
aI0
aI2
aI3
aI1
aI1
aI1
aI1
aI1
aI1
aI0
aI0
aI1
aI5
aI1
aI3
aI1
aI4
aI25
aI21
aI51
aI20
aI87
aI3
aI0
aI36
aI10
aI1
aI15
aI0
aI8
aI47
aI11
aI12
aI8
aI153
aI38
aI1
aI40
aI0
aI0
aI0
aI0
aI1
aI1
aI1
aI0
aI2
aI0
aI0
aI3
aI17
aI6
aI2
aI0
aI5
aI0
aI3
aI1
aI2
aI0
aI0
aI0
aI3
aI4
aI0
aI2
aI3
aI2
aI3
aI1
aI16
aI13
aI30
aI1
aI5
aI0
aI0
aI2
aI0
aI0
aI4
aI0
aI0
aI0
aI0
aI0
aI0
aI0
aI0
aI0
aI0
aI0
aI0
aI0
aI0
aI0
asS'SeekBehavior'
p12
(lp13
I12
aI1
aI0
aI14
aI34
aI14
aI79
aI68
aI21
aI22
aI14
aI59
aI32
aI30
aI47
aI52
aI20
aI14
aI19
aI11
aI15
aI40
aI25
aI42
aI25
aI17
aI33
aI36
aI27
aI20
aI56
aI8
aI7
aI23
aI23
aI21
aI99
aI8
aI52
aI3
aI5
aI17
aI12
aI10
aI39
aI13
aI40
aI20
aI129
aI94
aI15
aI3
aI0
aI8
aI19
aI3
aI13
aI25
aI31
aI28
aI10
aI18
aI35
aI16
aI35
aI18
aI15
aI8
aI41
aI193
aI80
aI22
aI16
aI101
aI43
aI34
aI19
aI71
aI18
aI24
aI18
aI34
aI81
aI27
aI25
aI41
aI68
aI67
aI19
aI142
aI16
aI41
aI21
aI58
aI16
aI12
aI55
aI9
aI14
aI98
aI54
aI114
aI31
aI24
aI33
aI32
aI35
aI20
aI27
aI26
aI12
aI52
aI16
aI23
aI27
assI2
(dp14
S'FleeBehavior'
p15
(lp16
I6
aI0
aI1
aI1
aI1
aI1
aI12
aI43
aI5
aI2
aI0
aI2
aI3
aI1
aI1
aI31
aI1
aI0
aI1
aI0
aI2
aI1
aI0
aI3
aI0
aI1
aI1
aI2
aI1
aI0
aI2
aI4
aI1
aI3
aI2
aI3
aI20
aI37
aI6
aI0
aI36
aI8
aI3
aI29
aI0
aI2
aI36
aI0
aI44
aI75
aI0
aI2
aI1
aI47
aI41
aI18
aI4
aI0
aI0
aI1
aI1
aI0
aI2
aI0
aI1
aI1
aI0
aI0
aI1
aI4
aI40
aI0
aI0
aI3
aI1
aI1
aI1
aI38
aI0
aI0
aI0
aI1
aI42
aI1
aI0
aI0
aI3
aI2
aI0
aI38
aI0
aI2
aI1
aI0
aI1
aI1
aI32
aI2
aI2
aI40
aI0
aI35
aI0
aI0
aI0
aI0
aI0
aI0
aI0
aI0
aI0
aI0
aI0
aI0
aI0
asS'PursueBehavior'
p17
(lp18
I56
aI19
aI1
aI20
aI35
aI11
aI54
aI71
aI2
aI1
aI0
aI1
aI0
aI3
aI2
aI11
aI1
aI1
aI0
aI1
aI0
aI1
aI0
aI0
aI0
aI1
aI0
aI3
aI1
aI0
aI35
aI2
aI0
aI3
aI0
aI1
aI29
aI17
aI88
aI0
aI10
aI1
aI0
aI6
aI38
aI0
aI6
aI0
aI17
aI16
aI5
aI1
aI0
aI27
aI6
aI4
aI64
aI36
aI4
aI1
aI0
aI1
aI0
aI0
aI0
aI2
aI0
aI0
aI2
aI19
aI5
aI2
aI0
aI4
aI2
aI1
aI0
aI1
aI0
aI0
aI1
aI1
aI5
aI0
aI1
aI0
aI0
aI3
aI0
aI5
aI1
aI1
aI1
aI3
aI1
aI0
aI2
aI0
aI0
aI3
aI0
aI0
aI0
aI0
aI0
aI0
aI0
aI0
aI0
aI0
aI0
aI0
aI0
aI0
aI0
asS'SeekBehavior'
p19
(lp20
I11
aI5
aI12
aI58
aI0
aI2
aI36
aI12
aI25
aI20
aI14
aI61
aI34
aI27
aI46
aI49
aI19
aI14
aI19
aI11
aI15
aI43
aI26
aI39
aI26
aI17
aI33
aI35
aI26
aI24
aI51
aI21
aI35
aI50
aI24
aI25
aI123
aI15
aI12
aI23
aI50
aI12
aI11
aI25
aI41
aI27
aI69
aI20
aI103
aI121
aI20
aI15
aI8
aI93
aI23
aI10
aI12
aI2
aI26
aI26
aI9
aI18
aI35
aI17
aI34
aI18
aI15
aI9
aI43
aI192
aI45
aI24
aI16
aI102
aI52
aI37
aI21
aI42
aI18
aI27
aI17
aI37
aI43
aI26
aI27
aI44
aI70
aI67
aI20
aI156
aI30
aI69
aI19
aI66
aI17
aI13
aI23
aI7
aI13
aI58
aI54
aI79
aI31
aI24
aI33
aI32
aI35
aI20
aI27
aI26
aI12
aI51
aI16
aI23
aI27
assI3
(dp21
S'FleeBehavior'
p22
(lp23
I13
aI2
aI0
aI21
aI0
aI0
aI23
aI32
aI0
aI1
aI0
aI3
aI1
aI0
aI1
aI18
aI2
aI0
aI0
aI1
aI1
aI1
aI2
aI1
aI1
aI1
aI0
aI0
aI1
aI1
aI13
aI0
aI2
aI0
aI2
aI0
aI21
aI13
aI6
aI1
aI34
aI1
aI0
aI19
aI18
aI0
aI37
aI1
aI10
aI38
aI3
aI1
aI0
aI40
aI24
aI19
aI36
aI3
aI1
aI2
aI1
aI0
aI0
aI1
aI1
aI0
aI0
aI1
aI2
aI22
aI40
aI1
aI1
aI2
aI25
aI29
aI16
aI71
aI9
aI0
aI1
aI2
aI36
aI1
aI0
aI1
aI5
aI15
aI1
aI44
aI3
aI3
aI1
aI1
aI0
aI0
aI32
aI0
aI0
aI38
aI0
aI39
aI0
aI0
aI0
aI0
aI0
aI0
aI0
aI0
aI0
aI0
aI0
aI0
aI0
asS'PursueBehavior'
p24
(lp25
I49
aI0
aI0
aI6
aI0
aI2
aI18
aI28
aI1
aI1
aI0
aI4
aI0
aI1
aI3
aI2
aI0
aI1
aI0
aI1
aI1
aI2
aI0
aI2
aI1
aI0
aI0
aI1
aI7
aI12
aI58
aI15
aI31
aI15
aI1
aI1
aI64
aI28
aI86
aI14
aI45
aI1
aI1
aI34
aI57
aI21
aI56
aI16
aI111
aI91
aI5
aI10
aI7
aI104
aI21
aI0
aI24
aI11
aI18
aI10
aI4
aI16
aI37
aI11
aI31
aI15
aI13
aI7
aI42
aI131
aI29
aI1
aI1
aI4
aI6
aI3
aI1
aI5
aI4
aI22
aI16
aI31
aI45
aI20
aI19
aI37
aI57
aI21
aI14
aI93
aI17
aI52
aI18
aI58
aI12
aI3
aI7
aI0
aI1
aI5
aI0
aI1
aI0
aI0
aI0
aI0
aI0
aI0
aI0
aI0
aI0
aI0
aI0
aI0
aI0
asS'SeekBehavior'
p26
(lp27
I10
aI22
aI14
aI52
aI36
aI11
aI61
aI66
aI30
aI21
aI14
aI57
aI36
aI30
aI45
aI71
aI18
aI14
aI20
aI10
aI14
aI42
aI24
aI39
aI24
aI18
aI34
aI39
aI20
aI11
aI17
aI12
aI3
aI41
aI23
aI28
aI87
aI28
aI13
aI7
aI17
aI19
aI13
aI7
aI4
aI8
aI18
aI3
aI42
aI83
aI17
aI7
aI1
aI23
aI25
aI13
aI20
aI24
aI11
aI16
aI4
aI2
aI0
aI5
aI3
aI6
aI2
aI1
aI2
aI62
aI21
aI24
aI14
aI103
aI24
aI7
aI5
aI5
aI5
aI5
aI1
aI6
aI8
aI6
aI9
aI6
aI11
aI36
aI4
aI62
aI11
aI17
aI2
aI9
aI7
aI11
aI18
aI9
aI14
aI58
aI53
aI74
aI31
aI24
aI33
aI32
aI35
aI20
aI26
aI26
aI12
aI51
aI15
aI22
aI26
assI4
(dp28
S'FleeBehavior'
p29
(lp30
I40
aI0
aI1
aI4
aI32
aI12
aI63
aI55
aI23
aI20
aI14
aI59
aI36
aI25
aI48
aI56
aI17
aI14
aI19
aI12
aI14
aI42
aI23
aI36
aI26
aI18
aI34
aI36
aI25
aI22
aI77
aI25
aI32
aI52
aI22
aI26
aI99
aI5
aI68
aI21
aI86
aI19
aI5
aI33
aI6
aI1
aI23
aI0
aI62
aI53
aI4
aI16
aI8
aI88
aI55
aI27
aI41
aI35
aI26
aI25
aI9
aI15
aI34
aI16
aI29
aI19
aI14
aI9
aI44
aI183
aI81
aI20
aI0
aI39
aI3
aI2
aI2
aI45
aI0
aI1
aI0
aI3
aI38
aI3
aI0
aI3
aI2
aI4
aI1
aI60
aI4
aI23
aI17
aI58
aI18
aI11
aI52
aI7
aI15
aI86
aI52
aI112
aI30
aI24
aI32
aI29
aI34
aI19
aI26
aI26
aI11
aI48
aI14
aI22
aI25
asS'PursueBehavior'
p31
(lp32
I24
aI20
aI12
aI55
aI3
aI0
aI22
aI16
aI6
aI3
aI0
aI3
aI1
aI5
aI0
aI4
aI0
aI1
aI1
aI0
aI1
aI2
aI1
aI4
aI0
aI1
aI0
aI0
aI2
aI1
aI3
aI1
aI1
aI3
aI3
aI2
aI67
aI17
aI33
aI1
aI6
aI2
aI9
aI20
aI53
aI23
aI72
aI19
aI97
aI83
aI16
aI1
aI0
aI12
aI10
aI4
aI1
aI2
aI2
aI1
aI0
aI3
aI2
aI0
aI3
aI0
aI0
aI0
aI0
aI5
aI6
aI4
aI15
aI67
aI52
aI36
aI18
aI35
aI16
aI25
aI17
aI35
aI48
aI24
aI27
aI38
aI69
aI68
aI17
aI136
aI26
aI47
aI4
aI10
aI0
aI0
aI3
aI0
aI0
aI8
aI1
aI2
aI0
aI0
aI1
aI3
aI0
aI1
aI0
aI0
aI1
aI3
aI1
aI0
aI1
asS'SeekBehavior'
p33
(lp34
I8
aI4
aI1
aI20
aI1
aI1
aI16
aI55
aI2
aI0
aI0
aI2
aI0
aI1
aI1
aI31
aI3
aI0
aI0
aI0
aI1
aI1
aI2
aI2
aI0
aI0
aI0
aI4
aI1
aI1
aI8
aI1
aI3
aI1
aI1
aI1
aI6
aI47
aI4
aI0
aI3
aI0
aI0
aI7
aI20
aI5
aI15
aI1
aI4
aI75
aI5
aI1
aI0
aI67
aI5
aI1
aI38
aI1
aI2
aI2
aI0
aI0
aI1
aI0
aI2
aI2
aI1
aI0
aI2
aI27
aI3
aI1
aI1
aI3
aI0
aI1
aI2
aI1
aI2
aI1
aI1
aI1
aI3
aI0
aI1
aI3
aI2
aI0
aI1
aI3
aI1
aI1
aI0
aI0
aI0
aI3
aI2
aI1
aI0
aI7
aI0
aI0
aI0
aI0
aI0
aI0
aI0
aI0
aI0
aI0
aI0
aI0
aI0
aI0
aI0
asss.