(dp0
S'learn_scores'
p1
(lp2
F-21.0
aF-331.0
aF-257.0
aF-399.0
aF-324.0
aF-33.0
aF84.0
aF-263.0
aF-434.0
aF-71.0
aF-409.0
aF-374.0
aF-419.0
aF-291.0
aF-414.0
aF-334.0
aF-422.0
aF-385.0
aF383.0
aF-357.0
aF-156.0
aF-157.0
aF-447.0
aF-431.0
aF-445.0
aF-342.0
aF-156.0
aF-360.0
aF-299.0
aF-434.0
aF-342.0
aF-278.0
aF-186.0
aF-337.0
aF-344.0
aF1.0
aF-405.0
aF-384.0
aF-385.0
aF-386.0
aF-299.0
aF-359.0
aF-93.0
aF-392.0
aF-228.0
aF-141.0
aF-267.0
aF-164.0
aF-397.0
aF-433.0
aF-286.0
aF162.0
aF-21.0
aF-319.0
aF-193.0
aF-353.0
aF-451.0
aF-236.0
aF-423.0
aF-358.0
aF-83.0
aF-353.0
aF-244.0
aF-219.0
aF-237.0
aF84.0
aF-335.0
aF-216.0
aF-347.0
aF-300.0
aF-306.0
aF-354.0
aF-332.0
aF-126.0
aF-325.0
aF-389.0
aF-438.0
aF-363.0
aF-253.0
aF-52.0
aF-311.0
aF-122.0
aF199.0
aF-327.0
aF-117.0
aF-249.0
aF-337.0
aF-365.0
aF-237.0
aF-352.0
aF-378.0
aF-360.0
aF-294.0
aF-379.0
aF-351.0
aF-315.0
aF-287.0
aF-359.0
aF-316.0
aF-294.0
asS'test_scores'
p3
(lp4
F-204.0
aF-392.0
aF-395.0
aF-255.0
aF-265.0
aF128.0
aF-460.0
aF-366.0
aF22.0
aF-201.0
aF-411.0
aF-272.0
aF-428.0
aF15.0
aF-266.0
asS'behavior_count'
p5
(dp6
I1
(dp7
S'FleeBehavior'
p8
(lp9
I65
aI33
aI7
aI0
aI4
aI29
aI6
aI0
aI0
aI5
aI0
aI4
aI1
aI34
aI23
aI84
aI12
aI35
aI50
aI17
aI72
aI73
aI16
aI10
aI33
aI47
aI87
aI38
aI48
aI25
aI30
aI34
aI56
aI37
aI73
aI94
aI15
aI52
aI41
aI26
aI26
aI48
aI59
aI6
aI16
aI49
aI29
aI76
aI23
aI11
aI16
aI70
aI70
aI35
aI67
aI14
aI39
aI79
aI13
aI47
aI161
aI62
aI94
aI38
aI24
aI53
aI8
aI10
aI14
aI35
aI26
aI41
aI40
aI71
aI24
aI18
aI49
aI22
aI72
aI238
aI50
aI70
aI34
aI24
aI94
aI49
aI12
aI12
aI60
aI3
aI0
aI4
aI5
aI4
aI9
aI19
aI28
aI34
aI35
aI32
aI104
aI22
aI16
aI75
aI95
aI44
aI30
aI16
aI45
aI59
aI21
aI22
aI9
aI115
aI27
asS'PursueBehavior'
p10
(lp11
I64
aI0
aI0
aI1
aI6
aI50
aI18
aI5
aI25
aI96
aI1
aI1
aI0
aI3
aI1
aI3
aI0
aI0
aI4
aI0
aI3
aI24
aI1
aI0
aI2
aI5
aI5
aI2
aI0
aI0
aI3
aI3
aI6
aI20
aI10
aI41
aI0
aI1
aI3
aI39
aI1
aI2
aI18
aI7
aI52
aI37
aI8
aI6
aI21
aI1
aI47
aI104
aI105
aI2
aI18
aI6
aI0
aI12
aI1
aI1
aI4
aI9
aI4
aI12
aI25
aI54
aI14
aI40
aI7
aI2
aI8
aI2
aI1
aI11
aI0
aI1
aI0
aI0
aI1
aI60
aI1
aI18
aI30
aI2
aI3
aI6
aI8
aI0
aI6
aI1
aI0
aI3
aI1
aI0
aI0
aI1
aI6
aI1
aI1
aI1
aI0
aI0
aI0
aI0
aI0
aI11
aI0
aI0
aI0
aI0
aI0
aI0
aI0
aI0
aI0
asS'SeekBehavior'
p12
(lp13
I32
aI19
aI40
aI19
aI84
aI64
aI83
aI39
aI0
aI20
aI18
aI30
aI8
aI65
aI0
aI17
aI0
aI1
aI53
aI0
aI1
aI1
aI0
aI1
aI0
aI1
aI15
aI1
aI1
aI0
aI0
aI2
aI25
aI1
aI2
aI34
aI0
aI1
aI1
aI1
aI2
aI0
aI27
aI0
aI0
aI6
aI1
aI2
aI3
aI1
aI3
aI24
aI47
aI3
aI9
aI3
aI2
aI5
aI0
aI0
aI9
aI2
aI17
aI9
aI9
aI59
aI4
aI66
aI27
aI3
aI3
aI2
aI2
aI4
aI1
aI0
aI0
aI1
aI0
aI25
aI1
aI34
aI27
aI1
aI11
aI25
aI8
aI3
aI72
aI19
aI18
aI33
aI58
aI16
aI13
aI16
aI54
aI4
aI1
aI2
aI0
aI0
aI0
aI0
aI0
aI17
aI0
aI0
aI34
aI32
aI0
aI40
aI0
aI40
aI40
assI2
(dp14
S'FleeBehavior'
p15
(lp16
I95
aI46
aI40
aI18
aI84
aI77
aI58
aI32
aI25
aI78
aI15
aI34
aI9
aI94
aI24
aI101
aI9
aI34
aI31
aI15
aI74
aI92
aI17
aI10
aI34
aI47
aI62
aI41
aI48
aI21
aI32
aI37
aI43
aI52
aI69
aI68
aI13
aI52
aI37
aI25
aI27
aI48
aI71
aI10
aI54
aI31
aI18
aI48
aI37
aI12
aI28
aI153
aI176
aI25
aI31
aI8
aI2
aI23
aI11
aI29
aI100
aI44
aI90
aI12
aI16
aI52
aI24
aI109
aI42
aI37
aI34
aI40
aI38
aI79
aI23
aI17
aI46
aI23
aI67
aI238
aI44
aI72
aI73
aI25
aI101
aI68
aI28
aI14
aI114
aI15
aI15
aI35
aI57
aI19
aI22
aI28
aI39
aI38
aI34
aI26
aI104
aI22
aI16
aI75
aI95
aI54
aI30
aI16
aI41
aI48
aI21
aI25
aI9
aI104
aI28
asS'PursueBehavior'
p17
(lp18
I47
aI2
aI6
aI0
aI3
aI20
aI30
aI1
aI0
aI37
aI3
aI1
aI0
aI3
aI0
aI1
aI1
aI2
aI62
aI1
aI1
aI3
aI0
aI1
aI1
aI2
aI37
aI0
aI0
aI2
aI0
aI1
aI44
aI5
aI14
aI87
aI0
aI1
aI8
aI39
aI1
aI1
aI30
aI3
aI13
aI57
aI0
aI13
aI5
aI1
aI36
aI14
aI29
aI0
aI26
aI1
aI0
aI3
aI0
aI1
aI4
aI2
aI1
aI2
aI1
aI54
aI1
aI2
aI1
aI2
aI2
aI3
aI3
aI6
aI1
aI1
aI1
aI0
aI3
aI29
aI2
aI38
aI8
aI2
aI1
aI1
aI0
aI0
aI7
aI6
aI3
aI3
aI4
aI0
aI0
aI3
aI16
aI1
aI0
aI1
aI0
aI0
aI0
aI0
aI0
aI0
aI0
aI0
aI2
aI0
aI0
aI0
aI0
aI1
aI3
asS'SeekBehavior'
p19
(lp20
I19
aI4
aI1
aI2
aI7
aI46
aI18
aI11
aI0
aI6
aI1
aI0
aI0
aI5
aI0
aI2
aI2
aI0
aI14
aI1
aI1
aI3
aI0
aI0
aI0
aI3
aI7
aI0
aI1
aI1
aI1
aI1
aI0
aI1
aI2
aI14
aI2
aI1
aI0
aI2
aI1
aI1
aI3
aI0
aI1
aI3
aI19
aI23
aI5
aI0
aI2
aI31
aI16
aI14
aI36
aI14
aI39
aI70
aI3
aI18
aI69
aI27
aI23
aI45
aI41
aI60
aI1
aI5
aI4
aI1
aI1
aI1
aI1
aI1
aI1
aI1
aI2
aI0
aI3
aI56
aI6
aI12
aI10
aI0
aI5
aI10
aI0
aI1
aI16
aI2
aI0
aI2
aI3
aI1
aI0
aI4
aI32
aI0
aI3
aI7
aI0
aI0
aI0
aI0
aI0
aI18
aI0
aI0
aI35
aI43
aI0
aI37
aI0
aI50
aI36
asss.