(dp0
S'learn_scores'
p1
(lp2
F526.0
aF349.0
aF-401.0
aF162.0
aF-186.0
aF141.0
aF-375.0
aF321.0
aF514.0
aF129.0
aF-329.0
aF-333.0
aF-248.0
aF368.0
aF209.0
aF-392.0
aF126.0
aF1748.0
aF686.0
aF-410.0
aF457.0
aF-222.0
aF1534.0
aF321.0
aF878.0
aF-150.0
aF67.0
aF478.0
aF484.0
aF1546.0
aF-910.0
aF210.0
aF390.0
aF-329.0
aF-38.0
aF-374.0
aF-401.0
aF10.0
aF1949.0
aF-15.0
aF577.0
aF-275.0
aF-271.0
aF212.0
aF-320.0
aF524.0
aF-7.0
aF-311.0
aF413.0
aF390.0
aF245.0
aF-410.0
aF-356.0
aF249.0
aF218.0
aF391.0
aF1747.0
aF-75.0
aF-231.0
aF212.0
aF-338.0
aF-302.0
aF-204.0
aF-356.0
aF-125.0
aF-428.0
aF356.0
aF466.0
aF-428.0
aF-374.0
aF114.0
aF-51.0
aF-275.0
aF684.0
aF1533.0
aF-11.0
aF-253.0
aF-401.0
aF16.0
aF-419.0
aF238.0
aF636.0
aF-316.0
aF2537.0
aF442.0
aF246.0
aF137.0
aF-7.0
aF-248.0
aF-356.0
aF-333.0
aF1936.0
aF-356.0
aF-428.0
aF-365.0
aF271.0
aF173.0
aF731.0
aF-401.0
aF-196.0
asS'test_scores'
p3
(lp4
F-428.0
aF932.0
aF199.0
aF381.0
aF-410.0
aF801.0
aF-230.0
aF367.0
aF1342.0
aF-119.0
aF-338.0
aF-392.0
aF-352.0
aF-276.0
aF-210.0
asS'behavior_count'
p5
(dp6
I1
(dp7
S'FleeBehavior'
p8
(lp9
I33
aI0
aI0
aI22
aI2
aI3
aI15
aI45
aI21
aI17
aI1
aI1
aI1
aI1
aI19
aI1
aI15
aI58
aI22
aI1
aI31
aI4
aI10
aI13
aI15
aI3
aI0
aI4
aI29
aI22
aI0
aI16
aI13
aI1
aI4
aI0
aI0
aI3
aI31
aI18
aI23
aI9
aI0
aI4
aI0
aI9
aI27
aI2
aI47
aI11
aI10
aI0
aI1
aI18
aI2
aI13
aI3
aI5
aI1
aI9
aI1
aI0
aI3
aI0
aI1
aI0
aI2
aI4
aI0
aI0
aI1
aI3
aI18
aI21
aI34
aI13
aI20
aI3
aI1
aI2
aI32
aI2
aI3
aI23
aI4
aI5
aI19
aI9
aI0
aI1
aI1
aI11
aI0
aI0
aI1
aI2
aI1
aI7
aI0
aI2
aI0
aI26
aI33
aI40
aI2
aI39
aI0
aI0
aI0
aI0
aI0
aI0
aI0
aI0
aI0
asS'PursueBehavior'
p10
(lp11
I27
aI44
aI0
aI15
aI1
aI26
aI0
aI2
aI23
aI16
aI0
aI2
aI8
aI14
aI17
aI0
aI17
aI3
aI23
aI0
aI9
aI7
aI45
aI2
aI13
aI5
aI13
aI8
aI10
aI26
aI1
aI2
aI6
aI0
aI1
aI4
aI1
aI17
aI25
aI18
aI37
aI1
aI8
aI31
aI0
aI10
aI4
aI7
aI10
aI10
aI1
aI0
aI4
aI4
aI14
aI27
aI37
aI15
aI6
aI10
aI3
aI3
aI2
aI0
aI5
aI0
aI7
aI22
aI0
aI3
aI15
aI7
aI0
aI30
aI29
aI20
aI2
aI3
aI12
aI1
aI13
aI37
aI3
aI36
aI10
aI20
aI11
aI6
aI3
aI0
aI4
aI32
aI1
aI4
aI10
aI24
aI29
aI47
aI3
aI25
aI0
aI32
aI7
aI4
aI0
aI43
aI24
aI17
aI57
aI22
aI2
aI1
aI1
aI4
aI10
asS'SeekBehavior'
p12
(lp13
I14
aI17
aI11
aI21
aI34
aI30
aI0
aI3
aI72
aI58
aI19
aI20
aI19
aI18
aI55
aI11
aI43
aI61
aI79
aI10
aI34
aI21
aI81
aI74
aI85
aI32
aI31
aI70
aI78
aI76
aI9
aI53
aI72
aI19
aI54
aI11
aI10
aI40
aI65
aI29
aI33
aI15
aI23
aI63
aI20
aI38
aI36
aI13
aI31
aI69
aI64
aI10
aI12
aI50
aI27
aI60
aI83
aI35
aI24
aI20
aI14
aI19
aI29
aI16
aI39
aI9
aI85
aI89
aI8
aI11
aI41
aI52
aI8
aI25
aI74
aI39
aI11
aI6
aI32
aI6
aI28
aI65
aI21
aI74
aI54
aI79
aI23
aI23
aI25
aI15
aI18
aI91
aI15
aI4
aI5
aI53
aI37
aI75
aI9
aI10
aI8
aI61
aI32
aI45
aI9
aI17
aI6
aI37
aI71
aI27
aI16
aI12
aI21
aI22
aI30
assI2
(dp14
S'FleeBehavior'
p15
(lp16
I38
aI11
aI0
aI20
aI2
aI6
aI1
aI29
aI19
aI13
aI0
aI0
aI0
aI1
aI8
aI1
aI19
aI50
aI23
aI1
aI21
aI3
aI16
aI13
aI8
aI1
aI3
aI6
aI33
aI22
aI0
aI13
aI9
aI1
aI0
aI1
aI1
aI1
aI2
aI4
aI9
aI0
aI3
aI4
aI0
aI4
aI4
aI1
aI22
aI11
aI8
aI1
aI0
aI18
aI2
aI15
aI2
aI2
aI0
aI14
aI2
aI1
aI2
aI3
aI2
aI0
aI2
aI0
aI0
aI0
aI2
aI1
aI0
aI3
aI1
aI1
aI0
aI0
aI6
aI1
aI31
aI4
aI0
aI19
aI1
aI1
aI22
aI8
aI4
aI0
aI0
aI20
aI0
aI1
aI0
aI4
aI2
aI9
aI1
aI2
aI0
aI22
aI22
aI39
aI0
aI39
aI0
aI0
aI0
aI0
aI0
aI0
aI0
aI0
aI0
asS'PursueBehavior'
p17
(lp18
I14
aI37
aI10
aI23
aI33
aI34
aI13
aI19
aI39
aI68
aI11
aI19
aI24
aI17
aI20
aI9
aI47
aI29
aI43
aI0
aI1
aI0
aI44
aI41
aI22
aI38
aI22
aI32
aI80
aI90
aI7
aI43
aI54
aI19
aI28
aI14
aI9
aI39
aI52
aI46
aI41
aI23
aI27
aI75
aI18
aI19
aI53
aI21
aI44
aI21
aI20
aI7
aI15
aI27
aI6
aI58
aI99
aI22
aI12
aI10
aI2
aI1
aI5
aI0
aI29
aI0
aI29
aI47
aI4
aI3
aI43
aI19
aI16
aI31
aI49
aI34
aI27
aI7
aI14
aI6
aI32
aI58
aI21
aI78
aI57
aI70
aI20
aI25
aI17
aI6
aI9
aI14
aI1
aI1
aI3
aI42
aI33
aI68
aI3
aI0
aI1
aI31
aI32
aI13
aI5
aI15
aI0
aI0
aI0
aI0
aI0
aI0
aI0
aI0
aI0
asS'SeekBehavior'
p19
(lp20
I22
aI13
aI1
aI15
aI2
aI19
aI1
aI2
aI58
aI10
aI9
aI4
aI4
aI15
aI63
aI2
aI9
aI43
aI58
aI10
aI52
aI29
aI76
aI35
aI83
aI1
aI18
aI44
aI4
aI12
aI3
aI15
aI28
aI0
aI31
aI0
aI1
aI20
aI67
aI15
aI43
aI2
aI1
aI19
aI2
aI34
aI10
aI0
aI22
aI58
aI47
aI2
aI2
aI27
aI34
aI27
aI22
aI31
aI19
aI14
aI14
aI20
aI27
aI13
aI14
aI9
aI63
aI67
aI4
aI11
aI11
aI42
aI10
aI42
aI87
aI37
aI6
aI5
aI24
aI2
aI10
aI42
aI6
aI36
aI10
aI33
aI11
aI5
aI7
aI10
aI14
aI100
aI15
aI6
aI13
aI33
aI32
aI52
aI8
aI35
aI7
aI66
aI18
aI37
aI6
aI45
aI30
aI54
aI128
aI49
aI18
aI13
aI22
aI26
aI40
assI3
(dp21
S'FleeBehavior'
p22
(lp23
I16
aI3
aI0
aI5
aI1
aI1
aI0
aI24
aI15
aI17
aI1
aI2
aI2
aI4
aI39
aI0
aI15
aI42
aI15
aI0
aI37
aI1
aI8
aI0
aI22
aI2
aI2
aI0
aI34
aI20
aI0
aI16
aI20
aI0
aI9
aI1
aI0
aI4
aI25
aI22
aI27
aI4
aI1
aI16
aI0
aI10
aI8
aI5
aI28
aI18
aI11
aI2
aI2
aI0
aI2
aI18
aI13
aI2
aI2
aI13
aI2
aI1
aI1
aI0
aI3
aI2
aI12
aI32
aI0
aI0
aI1
aI5
aI4
aI6
aI18
aI7
aI8
aI2
aI1
aI0
aI18
aI7
aI3
aI39
aI1
aI6
aI23
aI7
aI1
aI0
aI1
aI32
aI0
aI0
aI2
aI1
aI4
aI22
aI2
aI11
aI0
aI39
aI29
aI42
aI2
aI25
aI0
aI0
aI0
aI0
aI0
aI0
aI0
aI0
aI0
asS'PursueBehavior'
p24
(lp25
I35
aI37
aI11
aI34
aI35
aI39
aI15
aI23
aI68
aI58
aI19
aI5
aI20
aI9
aI12
aI1
aI32
aI29
aI42
aI8
aI15
aI5
aI67
aI65
aI18
aI27
aI2
aI16
aI49
aI39
aI8
aI35
aI58
aI15
aI26
aI7
aI9
aI34
aI23
aI13
aI34
aI17
aI17
aI62
aI16
aI19
aI23
aI13
aI14
aI24
aI33
aI5
aI13
aI34
aI31
aI38
aI44
aI22
aI19
aI7
aI9
aI17
aI13
aI6
aI24
aI5
aI25
aI30
aI6
aI13
aI17
aI27
aI19
aI44
aI69
aI25
aI7
aI7
aI11
aI7
aI26
aI40
aI15
aI62
aI15
aI45
aI8
aI14
aI16
aI10
aI12
aI71
aI7
aI8
aI12
aI18
aI11
aI45
aI9
aI24
aI8
aI29
aI5
aI16
aI9
aI64
aI7
aI9
aI53
aI24
aI7
aI7
aI3
aI4
aI19
asS'SeekBehavior'
p26
(lp27
I23
aI21
aI0
aI19
aI1
aI19
aI0
aI2
aI33
aI16
aI0
aI16
aI6
aI19
aI40
aI11
aI28
aI51
aI67
aI3
aI21
aI26
aI61
aI24
aI72
aI11
aI39
aI66
aI33
aI65
aI2
aI20
aI12
aI5
aI24
aI7
aI2
aI22
aI73
aI30
aI32
aI4
aI13
aI20
aI4
aI28
aI36
aI4
aI46
aI48
aI31
aI3
aI2
aI37
aI9
aI44
aI66
aI31
aI10
aI18
aI7
aI4
aI20
aI10
aI18
aI2
aI57
aI52
aI2
aI1
aI38
aI30
aI3
aI26
aI50
aI40
aI18
aI3
aI32
aI2
aI28
aI57
aI9
aI32
aI52
aI53
aI22
aI16
aI11
aI6
aI10
aI31
aI9
aI0
aI2
aI60
aI52
aI62
aI1
aI2
aI0
aI51
aI37
aI31
aI0
aI10
aI23
aI45
aI75
aI25
aI11
aI6
aI19
aI22
aI21
asss.