(dp0
S'learn_scores'
p1
(lp2
F-401.0
aF-392.0
aF408.0
aF-428.0
aF-158.0
aF-392.0
aF243.0
aF-154.0
aF1943.0
aF-276.0
aF479.0
aF-234.0
aF-392.0
aF-329.0
aF-79.0
aF641.0
aF-196.0
aF-365.0
aF582.0
aF-275.0
aF-392.0
aF-338.0
aF-257.0
aF-56.0
aF-419.0
aF-365.0
aF-118.0
aF1743.0
aF-875.0
aF152.0
aF-239.0
aF-374.0
aF-374.0
aF143.0
aF-401.0
aF286.0
aF1745.0
aF-410.0
aF-320.0
aF-347.0
aF-135.0
aF-63.0
aF-356.0
aF375.0
aF2143.0
aF1198.0
aF-356.0
aF742.0
aF-347.0
aF108.0
aF922.0
aF478.0
aF179.0
aF-240.0
aF-329.0
aF-365.0
aF496.0
aF-298.0
aF-374.0
aF-293.0
aF2541.0
aF-266.0
aF1220.0
aF109.0
aF23.0
aF320.0
aF-5.0
aF-320.0
aF-365.0
aF309.0
aF656.0
aF735.0
aF19.0
aF1944.0
aF-428.0
aF-338.0
aF1245.0
aF-392.0
aF372.0
aF519.0
aF-153.0
aF-339.0
aF-401.0
aF807.0
aF-410.0
aF-392.0
aF-111.0
aF443.0
aF-182.0
aF385.0
aF-392.0
aF-428.0
aF29.0
aF-302.0
aF-392.0
aF-339.0
aF-410.0
aF-329.0
aF-347.0
aF133.0
asS'test_scores'
p3
(lp4
F221.0
aF690.0
aF-320.0
aF378.0
aF-410.0
aF310.0
aF-248.0
aF-233.0
aF-338.0
aF-320.0
aF1949.0
aF-338.0
aF-294.0
aF246.0
aF-366.0
asS'behavior_count'
p5
(dp6
I1
(dp7
S'FleeBehavior'
p8
(lp9
I3
aI0
aI1
aI0
aI0
aI0
aI2
aI1
aI15
aI0
aI7
aI3
aI0
aI1
aI2
aI0
aI0
aI1
aI3
aI0
aI1
aI0
aI2
aI5
aI0
aI1
aI1
aI13
aI0
aI21
aI0
aI1
aI0
aI21
aI2
aI1
aI11
aI0
aI0
aI2
aI1
aI3
aI3
aI23
aI35
aI33
aI0
aI60
aI2
aI38
aI28
aI41
aI38
aI2
aI2
aI8
aI47
aI25
aI14
aI23
aI97
aI0
aI19
aI4
aI0
aI1
aI2
aI1
aI1
aI2
aI15
aI1
aI2
aI7
aI3
aI1
aI1
aI3
aI3
aI14
aI6
aI0
aI1
aI23
aI0
aI2
aI1
aI5
aI1
aI2
aI0
aI0
aI2
aI0
aI1
aI0
aI1
aI0
aI4
aI1
aI0
aI0
aI0
aI0
aI0
aI0
aI0
aI0
aI0
aI0
aI16
aI0
aI0
aI0
aI0
asS'PursueBehavior'
p10
(lp11
I3
aI0
aI9
aI0
aI3
aI0
aI17
aI2
aI50
aI9
aI31
aI31
aI9
aI9
aI9
aI33
aI3
aI0
aI33
aI0
aI2
aI0
aI1
aI3
aI0
aI0
aI1
aI5
aI0
aI20
aI0
aI2
aI3
aI3
aI0
aI1
aI4
aI6
aI1
aI3
aI1
aI2
aI0
aI15
aI42
aI44
aI1
aI9
aI0
aI4
aI21
aI2
aI2
aI2
aI0
aI1
aI3
aI2
aI1
aI1
aI5
aI1
aI14
aI45
aI10
aI4
aI0
aI1
aI0
aI2
aI5
aI41
aI0
aI36
aI1
aI0
aI27
aI4
aI46
aI21
aI2
aI1
aI0
aI28
aI0
aI0
aI2
aI31
aI1
aI1
aI1
aI0
aI18
aI1
aI0
aI2
aI1
aI0
aI0
aI4
aI22
aI48
aI0
aI70
aI0
aI25
aI0
aI0
aI0
aI0
aI34
aI0
aI0
aI40
aI0
asS'SeekBehavior'
p12
(lp13
I6
aI12
aI62
aI9
aI35
aI13
aI49
aI42
aI62
aI17
aI44
aI1
aI3
aI9
aI39
aI37
aI34
aI14
aI53
aI26
aI10
aI19
aI24
aI48
aI10
aI15
aI46
aI109
aI15
aI47
aI30
aI12
aI12
aI34
aI9
aI42
aI110
aI4
aI20
aI12
aI43
aI48
aI14
aI27
aI50
aI26
aI16
aI50
aI16
aI41
aI30
aI60
aI21
aI27
aI18
aI7
aI65
aI2
aI0
aI0
aI27
aI26
aI67
aI32
aI28
aI75
aI34
aI19
aI15
aI107
aI84
aI84
aI59
aI83
aI4
aI17
aI77
aI5
aI10
aI36
aI36
aI18
aI11
aI63
aI11
aI10
aI48
aI42
aI40
aI33
aI11
aI9
aI22
aI21
aI12
aI18
aI8
aI20
aI14
aI22
aI18
aI33
aI20
aI13
aI10
aI26
aI29
aI33
aI18
aI21
aI71
aI18
aI25
aI24
aI16
assI2
(dp14
S'FleeBehavior'
p15
(lp16
I4
aI1
aI24
aI2
aI30
aI0
aI13
aI0
aI30
aI11
aI33
aI2
aI1
aI0
aI1
aI3
aI1
aI1
aI0
aI0
aI0
aI0
aI0
aI3
aI0
aI0
aI1
aI2
aI0
aI36
aI1
aI1
aI0
aI22
aI0
aI4
aI10
aI0
aI1
aI0
aI1
aI2
aI1
aI28
aI48
aI47
aI0
aI58
aI0
aI41
aI31
aI52
aI34
aI1
aI0
aI0
aI6
aI1
aI0
aI2
aI28
aI1
aI7
aI3
aI0
aI4
aI4
aI0
aI0
aI5
aI5
aI25
aI5
aI45
aI2
aI1
aI6
aI1
aI2
aI24
aI0
aI3
aI6
aI42
aI1
aI1
aI2
aI4
aI1
aI0
aI0
aI1
aI18
aI1
aI2
aI0
aI0
aI0
aI1
aI11
aI22
aI52
aI0
aI71
aI0
aI32
aI0
aI0
aI0
aI0
aI57
aI3
aI0
aI40
aI0
asS'PursueBehavior'
p17
(lp18
I3
aI0
aI7
aI0
aI2
aI0
aI17
aI1
aI58
aI0
aI7
aI2
aI0
aI1
aI3
aI2
aI1
aI1
aI35
aI1
aI2
aI0
aI1
aI5
aI0
aI1
aI3
aI13
aI0
aI1
aI2
aI0
aI1
aI1
aI0
aI6
aI59
aI0
aI0
aI0
aI1
aI6
aI0
aI7
aI47
aI2
aI14
aI23
aI18
aI35
aI8
aI17
aI26
aI25
aI8
aI0
aI38
aI0
aI0
aI1
aI38
aI0
aI55
aI38
aI14
aI3
aI2
aI0
aI1
aI4
aI13
aI20
aI1
aI22
aI1
aI1
aI29
aI10
aI52
aI30
aI32
aI15
aI1
aI25
aI0
aI0
aI0
aI10
aI1
aI2
aI2
aI0
aI2
aI1
aI0
aI0
aI0
aI1
aI0
aI0
aI0
aI0
aI0
aI0
aI0
aI0
aI0
aI0
aI0
aI0
aI0
aI0
aI0
aI0
aI0
asS'SeekBehavior'
p19
(lp20
I5
aI11
aI41
aI7
aI6
aI13
aI38
aI44
aI39
aI15
aI42
aI31
aI11
aI18
aI46
aI65
aI35
aI13
aI54
aI25
aI11
aI19
aI26
aI48
aI10
aI15
aI44
aI112
aI15
aI51
aI27
aI14
aI14
aI35
aI11
aI34
aI56
aI10
aI20
aI17
aI43
aI45
aI16
aI30
aI32
aI54
aI3
aI37
aI0
aI7
aI40
aI34
aI1
aI5
aI12
aI16
aI71
aI28
aI15
aI21
aI63
aI26
aI38
aI40
aI24
aI73
aI29
aI21
aI15
aI102
aI86
aI81
aI55
aI59
aI5
aI16
aI70
aI1
aI5
aI17
aI12
aI1
aI5
aI46
aI10
aI11
aI49
aI63
aI40
aI34
aI10
aI8
aI22
aI20
aI11
aI20
aI10
aI19
aI17
aI16
aI18
aI29
aI20
aI12
aI10
aI19
aI29
aI33
aI18
aI21
aI64
aI15
aI25
aI24
aI16
assI3
(dp21
S'FleeBehavior'
p22
(lp23
I6
aI11
aI45
aI0
aI6
aI12
aI31
aI36
aI16
aI0
aI2
aI4
aI0
aI0
aI1
aI5
aI33
aI14
aI71
aI24
aI10
aI16
aI26
aI15
aI9
aI15
aI46
aI50
aI14
aI84
aI29
aI14
aI14
aI38
aI10
aI24
aI42
aI7
aI20
aI15
aI39
aI51
aI16
aI50
aI90
aI72
aI16
aI92
aI16
aI76
aI31
aI59
aI17
aI28
aI18
aI16
aI72
aI26
aI13
aI20
aI97
aI2
aI9
aI30
aI11
aI15
aI15
aI14
aI15
aI31
aI30
aI71
aI52
aI53
aI5
aI15
aI16
aI11
aI20
aI30
aI43
aI17
aI11
aI66
aI10
aI12
aI45
aI64
aI41
aI21
aI11
aI9
aI30
aI9
aI2
aI8
aI6
aI0
aI2
aI3
aI39
aI32
aI20
aI46
aI10
aI19
aI28
aI33
aI18
aI20
aI43
aI18
aI24
aI40
aI16
asS'PursueBehavior'
p24
(lp25
I3
aI0
aI14
aI0
aI1
aI0
aI29
aI3
aI64
aI0
aI22
aI29
aI11
aI19
aI46
aI56
aI3
aI1
aI7
aI0
aI2
aI1
aI1
aI4
aI0
aI0
aI1
aI13
aI1
aI1
aI0
aI0
aI0
aI4
aI0
aI7
aI65
aI1
aI0
aI0
aI2
aI0
aI0
aI14
aI35
aI3
aI0
aI5
aI1
aI4
aI17
aI31
aI38
aI2
aI1
aI0
aI5
aI0
aI1
aI2
aI23
aI13
aI85
aI3
aI3
aI4
aI1
aI1
aI1
aI3
aI10
aI0
aI5
aI23
aI3
aI1
aI5
aI0
aI36
aI28
aI1
aI1
aI0
aI11
aI0
aI0
aI6
aI9
aI1
aI1
aI1
aI0
aI11
aI13
aI11
aI11
aI4
aI18
aI12
aI17
aI0
aI40
aI0
aI37
aI0
aI22
aI0
aI0
aI0
aI0
aI49
aI0
aI0
aI24
aI0
asS'SeekBehavior'
p26
(lp27
I3
aI1
aI13
aI9
aI31
aI1
aI8
aI6
aI47
aI26
aI58
aI1
aI1
aI0
aI3
aI9
aI0
aI0
aI11
aI1
aI1
aI1
aI0
aI37
aI1
aI0
aI1
aI64
aI0
aI3
aI0
aI1
aI0
aI16
aI1
aI13
aI18
aI2
aI0
aI2
aI4
aI2
aI0
aI1
aI2
aI28
aI1
aI21
aI1
aI2
aI31
aI13
aI6
aI1
aI0
aI0
aI37
aI2
aI0
aI1
aI9
aI11
aI6
aI48
aI24
aI61
aI19
aI6
aI0
aI77
aI64
aI55
aI4
aI50
aI0
aI2
aI84
aI1
aI3
aI13
aI0
aI1
aI0
aI36
aI0
aI0
aI0
aI4
aI0
aI13
aI0
aI0
aI1
aI0
aI0
aI1
aI0
aI2
aI3
aI7
aI0
aI9
aI0
aI0
aI0
aI10
aI0
aI0
aI0
aI0
aI29
aI0
aI0
aI0
aI0
assI4
(dp28
S'FleeBehavior'
p29
(lp30
I5
aI12
aI43
aI1
aI35
aI13
aI40
aI43
aI43
aI7
aI2
aI0
aI1
aI1
aI3
aI8
aI34
aI15
aI52
aI25
aI13
aI17
aI26
aI16
aI10
aI15
aI48
aI83
aI13
aI47
aI27
aI15
aI14
aI35
aI10
aI36
aI78
aI8
aI19
aI16
aI41
aI48
aI14
aI25
aI56
aI53
aI9
aI30
aI8
aI25
aI16
aI25
aI13
aI11
aI16
aI15
aI71
aI23
aI13
aI22
aI60
aI24
aI44
aI25
aI13
aI23
aI10
aI21
aI16
aI29
aI41
aI55
aI51
aI76
aI5
aI16
aI57
aI4
aI9
aI30
aI25
aI15
aI8
aI47
aI8
aI6
aI13
aI13
aI9
aI19
aI11
aI9
aI23
aI20
aI12
aI19
aI10
aI19
aI16
aI17
aI18
aI44
aI20
aI12
aI10
aI36
aI28
aI33
aI18
aI20
aI87
aI18
aI24
aI24
aI16
asS'PursueBehavior'
p31
(lp32
I3
aI0
aI19
aI8
aI1
aI0
aI27
aI0
aI81
aI1
aI20
aI1
aI0
aI0
aI2
aI5
aI1
aI0
aI7
aI0
aI0
aI0
aI1
aI2
aI0
aI0
aI0
aI1
aI2
aI2
aI2
aI0
aI0
aI3
aI0
aI1
aI24
aI0
aI1
aI0
aI1
aI2
aI1
aI1
aI0
aI4
aI0
aI50
aI10
aI55
aI48
aI5
aI6
aI19
aI3
aI0
aI1
aI3
aI1
aI1
aI23
aI1
aI22
aI53
aI24
aI54
aI20
aI0
aI0
aI74
aI47
aI34
aI4
aI13
aI1
aI1
aI26
aI8
aI45
aI36
aI17
aI4
aI3
aI42
aI1
aI6
aI34
aI58
aI33
aI14
aI0
aI0
aI0
aI1
aI1
aI1
aI0
aI0
aI0
aI2
aI0
aI0
aI0
aI0
aI0
aI0
aI0
aI0
aI0
aI0
aI0
aI0
aI0
aI0
aI0
asS'SeekBehavior'
p33
(lp34
I4
aI0
aI10
aI0
aI2
aI0
aI1
aI2
aI3
aI18
aI59
aI33
aI11
aI18
aI45
aI56
aI1
aI0
aI30
aI0
aI0
aI1
aI0
aI38
aI0
aI0
aI0
aI43
aI0
aI39
aI0
aI0
aI0
aI20
aI1
aI7
aI23
aI2
aI0
aI1
aI3
aI3
aI1
aI39
aI71
aI45
aI8
aI38
aI0
aI2
aI14
aI73
aI42
aI1
aI0
aI1
aI42
aI2
aI0
aI0
aI46
aI1
aI34
aI3
aI1
aI3
aI5
aI0
aI0
aI8
aI16
aI36
aI6
aI37
aI2
aI1
aI22
aI0
aI4
aI5
aI2
aI0
aI0
aI24
aI1
aI0
aI4
aI6
aI0
aI2
aI1
aI0
aI18
aI1
aI0
aI0
aI0
aI1
aI1
aI8
aI21
aI37
aI0
aI70
aI0
aI14
aI0
aI0
aI0
aI0
aI34
aI0
aI0
aI40
aI0
asss.