(dp0
S'learn_scores'
p1
(lp2
F-185.0
aF4.0
aF-402.0
aF-62.0
aF65.0
aF-330.0
aF-273.0
aF-365.0
aF-450.0
aF-431.0
aF-431.0
aF-139.0
aF-410.0
aF-206.0
aF-392.0
aF73.0
aF-453.0
aF-327.0
aF-428.0
aF-360.0
aF-323.0
aF-392.0
aF-289.0
aF-362.0
aF-267.0
aF-360.0
aF-436.0
aF-71.0
aF-411.0
aF-265.0
aF-262.0
aF-428.0
aF-321.0
aF-419.0
aF-288.0
aF-319.0
aF-27.0
aF-317.0
aF-385.0
aF-96.0
aF-326.0
aF-392.0
aF-407.0
aF-287.0
aF-370.0
aF268.0
aF19.0
aF-166.0
aF-428.0
aF121.0
aF125.0
aF-43.0
aF-300.0
aF-383.0
aF-279.0
aF-319.0
aF-374.0
aF-330.0
aF-287.0
aF-122.0
aF-347.0
aF-342.0
aF-311.0
aF-287.0
aF-390.0
aF-375.0
aF-379.0
aF-51.0
aF-161.0
aF-348.0
aF-393.0
aF-230.0
aF-268.0
aF-231.0
aF-414.0
aF-145.0
aF-372.0
aF-429.0
aF-2.0
aF-325.0
aF-283.0
aF-315.0
aF-372.0
aF-313.0
aF-84.0
aF-315.0
aF-272.0
aF-271.0
aF-391.0
aF-218.0
aF-41.0
aF-223.0
aF-455.0
aF-387.0
aF-385.0
aF-393.0
aF-141.0
aF-419.0
aF-142.0
aF-316.0
asS'test_scores'
p3
(lp4
F-436.0
aF-427.0
aF0.0
aF-397.0
aF-384.0
aF-286.0
aF-412.0
aF-354.0
aF-170.0
aF-404.0
aF-383.0
aF-363.0
aF-452.0
aF-421.0
aF17.0
asS'behavior_count'
p5
(dp6
I1
(dp7
S'FleeBehavior'
p8
(lp9
I26
aI19
aI0
aI23
aI113
aI29
aI27
aI15
aI10
aI21
aI40
aI96
aI7
aI46
aI12
aI89
aI23
aI27
aI16
aI20
aI40
aI12
aI27
aI22
aI64
aI29
aI24
aI135
aI10
aI43
aI1
aI1
aI5
aI0
aI4
aI0
aI3
aI6
aI1
aI1
aI1
aI1
aI1
aI4
aI1
aI93
aI54
aI15
aI8
aI81
aI109
aI43
aI103
aI11
aI57
aI35
aI40
aI72
aI45
aI20
aI20
aI20
aI77
aI34
aI58
aI53
aI18
aI97
aI110
aI94
aI24
aI119
aI15
aI21
aI0
aI2
aI2
aI2
aI1
aI2
aI1
aI0
aI2
aI1
aI6
aI2
aI3
aI5
aI2
aI114
aI79
aI13
aI2
aI2
aI2
aI0
aI16
aI1
aI4
aI1
aI1
aI0
aI4
aI0
aI0
aI0
aI0
aI0
aI0
aI0
aI0
aI0
aI0
aI1
aI6
asS'PursueBehavior'
p10
(lp11
I47
aI52
aI13
aI82
aI24
aI1
aI5
aI0
aI0
aI1
aI0
aI35
aI1
aI25
aI0
aI16
aI1
aI0
aI2
aI0
aI0
aI0
aI2
aI0
aI1
aI1
aI1
aI34
aI1
aI12
aI22
aI6
aI26
aI9
aI24
aI48
aI65
aI24
aI2
aI3
aI0
aI1
aI1
aI5
aI0
aI80
aI15
aI5
aI1
aI21
aI8
aI4
aI52
aI2
aI2
aI2
aI4
aI66
aI1
aI19
aI2
aI0
aI40
aI1
aI2
aI1
aI1
aI42
aI55
aI12
aI0
aI47
aI39
aI44
aI8
aI40
aI1
aI70
aI60
aI0
aI1
aI1
aI1
aI0
aI3
aI35
aI1
aI2
aI4
aI49
aI40
aI83
aI23
aI16
aI24
aI13
aI134
aI7
aI82
aI30
aI9
aI2
aI52
aI7
aI9
aI32
aI4
aI42
aI44
aI4
aI3
aI9
aI6
aI14
aI126
asS'SeekBehavior'
p12
(lp13
I73
aI45
aI0
aI7
aI18
aI0
aI2
aI1
aI1
aI0
aI2
aI8
aI3
aI6
aI0
aI3
aI0
aI0
aI0
aI1
aI3
aI0
aI1
aI0
aI2
aI0
aI1
aI2
aI1
aI40
aI40
aI1
aI1
aI1
aI0
aI1
aI10
aI28
aI23
aI62
aI26
aI21
aI25
aI69
aI29
aI240
aI12
aI57
aI0
aI47
aI28
aI46
aI5
aI0
aI1
aI2
aI1
aI3
aI1
aI14
aI5
aI3
aI5
aI2
aI1
aI2
aI0
aI3
aI6
aI3
aI0
aI5
aI4
aI7
aI36
aI53
aI60
aI38
aI61
aI33
aI31
aI24
aI20
aI32
aI116
aI58
aI28
aI34
aI25
aI45
aI32
aI7
aI0
aI0
aI0
aI0
aI2
aI2
aI7
aI5
aI26
aI16
aI64
aI20
aI25
aI35
aI19
aI42
aI26
aI10
aI31
aI25
aI16
aI37
aI122
assI2
(dp14
S'FleeBehavior'
p15
(lp16
I26
aI26
aI0
aI23
aI33
aI15
aI31
aI13
aI7
aI2
aI19
aI27
aI11
aI59
aI11
aI73
aI19
aI21
aI0
aI1
aI1
aI0
aI1
aI1
aI33
aI3
aI1
aI37
aI2
aI12
aI5
aI0
aI2
aI2
aI2
aI2
aI0
aI2
aI0
aI4
aI0
aI2
aI1
aI2
aI2
aI75
aI42
aI3
aI0
aI18
aI47
aI9
aI23
aI1
aI33
aI32
aI11
aI42
aI7
aI7
aI1
aI1
aI27
aI2
aI50
aI26
aI14
aI70
aI59
aI86
aI19
aI99
aI14
aI10
aI1
aI40
aI4
aI3
aI70
aI7
aI0
aI2
aI10
aI3
aI74
aI42
aI1
aI0
aI3
aI45
aI42
aI50
aI0
aI0
aI1
aI0
aI40
aI0
aI40
aI0
aI0
aI0
aI38
aI0
aI0
aI0
aI0
aI0
aI39
aI0
aI0
aI0
aI0
aI0
aI39
asS'PursueBehavior'
p17
(lp18
I79
aI66
aI0
aI20
aI38
aI9
aI3
aI1
aI1
aI1
aI3
aI38
aI0
aI15
aI0
aI4
aI0
aI2
aI0
aI0
aI3
aI2
aI0
aI2
aI1
aI0
aI1
aI8
aI0
aI24
aI2
aI0
aI1
aI0
aI0
aI1
aI15
aI2
aI2
aI6
aI1
aI0
aI0
aI4
aI2
aI37
aI14
aI44
aI0
aI39
aI36
aI39
aI114
aI3
aI15
aI5
aI29
aI62
aI10
aI29
aI1
aI2
aI14
aI11
aI1
aI13
aI2
aI15
aI75
aI2
aI1
aI7
aI2
aI20
aI26
aI21
aI35
aI90
aI14
aI15
aI2
aI1
aI1
aI1
aI5
aI2
aI1
aI4
aI2
aI10
aI13
aI16
aI2
aI7
aI1
aI1
aI22
aI0
aI4
aI0
aI0
aI0
aI0
aI0
aI0
aI0
aI0
aI0
aI0
aI0
aI0
aI0
aI0
aI0
aI0
asS'SeekBehavior'
p19
(lp20
I40
aI24
aI12
aI69
aI84
aI6
aI0
aI2
aI3
aI19
aI20
aI74
aI0
aI2
aI1
aI30
aI5
aI4
aI18
aI19
aI39
aI10
aI28
aI19
aI33
aI27
aI24
aI126
aI9
aI59
aI56
aI8
aI28
aI8
aI26
aI46
aI62
aI53
aI23
aI56
aI25
aI21
aI26
aI71
aI26
aI301
aI25
aI30
aI9
aI92
aI62
aI45
aI23
aI9
aI12
aI2
aI5
aI36
aI30
aI16
aI25
aI20
aI81
aI24
aI10
aI16
aI3
aI56
aI37
aI20
aI4
aI65
aI42
aI41
aI17
aI34
aI23
aI16
aI38
aI13
aI31
aI22
aI11
aI29
aI46
aI51
aI30
aI37
aI26
aI153
aI96
aI37
aI23
aI11
aI24
aI12
aI90
aI10
aI48
aI36
aI36
aI18
aI82
aI27
aI34
aI67
aI23
aI84
aI31
aI14
aI33
aI34
aI22
aI51
aI214
asss.