(dp0
S'learn_scores'
p1
(lp2
F-257.0
aF-284.0
aF-151.0
aF51.0
aF-188.0
aF322.0
aF-284.0
aF-329.0
aF-98.0
aF-311.0
aF126.0
aF-197.0
aF-352.0
aF807.0
aF-90.0
aF-361.0
aF-94.0
aF175.0
aF-90.0
aF-223.0
aF-128.0
aF-358.0
aF-59.0
aF272.0
aF-275.0
aF-200.0
aF10.0
aF192.0
aF-287.0
aF-202.0
aF79.0
aF-250.0
aF24.0
aF-168.0
aF-245.0
aF456.0
aF197.0
aF-95.0
aF-121.0
aF-48.0
aF-331.0
aF28.0
aF22.0
aF-302.0
aF-285.0
aF-284.0
aF-24.0
aF-163.0
aF-367.0
aF213.0
aF245.0
aF-260.0
aF-333.0
aF96.0
aF-171.0
aF-72.0
aF169.0
aF-201.0
aF-142.0
aF-4.0
aF297.0
aF-120.0
aF22.0
aF-159.0
aF277.0
aF-196.0
aF-256.0
aF9.0
aF189.0
aF-312.0
aF-162.0
aF231.0
aF-194.0
aF-357.0
aF-161.0
aF-368.0
aF-148.0
aF-398.0
aF-314.0
aF-391.0
aF198.0
aF-328.0
aF-158.0
aF281.0
aF-6.0
aF372.0
aF-187.0
aF-270.0
aF-192.0
aF-2.0
aF-394.0
aF-328.0
aF35.0
aF-313.0
aF-75.0
aF-351.0
aF-43.0
aF-129.0
aF-131.0
aF-285.0
asS'test_scores'
p3
(lp4
F-216.0
aF98.0
aF-96.0
aF-128.0
aF-349.0
aF-206.0
aF-261.0
aF-52.0
aF-331.0
aF-68.0
aF-350.0
aF-336.0
aF95.0
aF-432.0
aF-312.0
asS'behavior_count'
p5
(dp6
I1
(dp7
S'FleeBehavior'
p8
(lp9
I9
aI109
aI46
aI86
aI27
aI240
aI100
aI100
aI19
aI0
aI79
aI41
aI46
aI127
aI25
aI1
aI10
aI84
aI3
aI0
aI3
aI8
aI48
aI27
aI78
aI7
aI220
aI6
aI0
aI13
aI214
aI3
aI119
aI21
aI1
aI89
aI87
aI71
aI8
aI3
aI0
aI62
aI81
aI136
aI143
aI42
aI59
aI88
aI2
aI57
aI50
aI44
aI27
aI79
aI39
aI92
aI133
aI97
aI57
aI49
aI171
aI18
aI89
aI61
aI149
aI104
aI80
aI33
aI25
aI20
aI63
aI132
aI3
aI2
aI6
aI0
aI2
aI1
aI0
aI0
aI5
aI1
aI25
aI28
aI13
aI92
aI4
aI4
aI0
aI6
aI0
aI5
aI44
aI60
aI96
aI0
aI41
aI35
aI5
aI0
aI0
aI0
aI0
aI0
aI0
aI0
aI8
aI6
aI0
aI4
aI0
aI0
aI4
aI0
aI0
asS'PursueBehavior'
p10
(lp11
I10
aI42
aI80
aI14
aI64
aI327
aI13
aI248
aI68
aI1
aI31
aI149
aI2
aI78
aI92
aI20
aI146
aI170
aI210
aI1
aI12
aI40
aI257
aI97
aI67
aI75
aI242
aI59
aI43
aI311
aI202
aI7
aI49
aI82
aI42
aI256
aI190
aI58
aI148
aI157
aI31
aI78
aI21
aI26
aI25
aI28
aI134
aI165
aI24
aI239
aI158
aI15
aI6
aI64
aI22
aI17
aI67
aI19
aI116
aI39
aI147
aI45
aI73
aI82
aI128
aI58
aI67
aI295
aI122
aI27
aI129
aI149
aI29
aI20
aI88
aI22
aI35
aI18
aI22
aI34
aI47
aI31
aI291
aI163
aI246
aI150
aI114
aI42
aI48
aI158
aI18
aI48
aI79
aI17
aI88
aI21
aI91
aI57
aI105
aI71
aI42
aI56
aI76
aI37
aI44
aI35
aI27
aI59
aI40
aI77
aI48
aI66
aI125
aI42
aI89
asS'SeekBehavior'
p12
(lp13
I8
aI14
aI16
aI20
aI17
aI121
aI12
aI62
aI22
aI41
aI115
aI8
aI5
aI128
aI14
aI1
aI8
aI11
aI18
aI43
aI63
aI0
aI24
aI25
aI100
aI59
aI68
aI24
aI4
aI9
aI55
aI21
aI29
aI5
aI2
aI29
aI156
aI126
aI5
aI8
aI1
aI33
aI16
aI10
aI7
aI5
aI2
aI51
aI1
aI41
aI18
aI2
aI1
aI12
aI1
aI3
aI42
aI5
aI9
aI67
aI106
aI48
aI6
aI16
aI26
aI5
aI40
aI23
aI15
aI16
aI10
aI69
aI92
aI15
aI47
aI7
aI31
aI19
aI32
aI18
aI130
aI16
aI262
aI49
aI8
aI66
aI119
aI14
aI64
aI78
aI6
aI75
aI232
aI57
aI12
aI1
aI1
aI7
aI2
aI5
aI14
aI76
aI181
aI61
aI5
aI12
aI97
aI117
aI51
aI18
aI113
aI30
aI187
aI30
aI63
assI2
(dp14
S'FleeBehavior'
p15
(lp16
I11
aI69
aI73
aI19
aI77
aI398
aI32
aI261
aI90
aI3
aI171
aI143
aI51
aI146
aI10
aI3
aI20
aI101
aI36
aI38
aI75
aI43
aI122
aI109
aI45
aI28
aI202
aI42
aI45
aI274
aI262
aI11
aI83
aI103
aI44
aI256
aI187
aI90
aI98
aI77
aI15
aI29
aI28
aI96
aI147
aI37
aI65
aI228
aI25
aI238
aI138
aI22
aI3
aI90
aI40
aI59
aI158
aI73
aI49
aI46
aI202
aI66
aI93
aI84
aI227
aI50
aI131
aI183
aI43
aI58
aI143
aI112
aI69
aI28
aI35
aI26
aI25
aI31
aI51
aI45
aI158
aI45
aI403
aI135
aI65
aI109
aI78
aI5
aI37
aI97
aI21
aI79
aI97
aI57
aI117
aI21
aI56
aI51
aI58
aI14
aI5
aI7
aI6
aI7
aI0
aI9
aI0
aI4
aI2
aI2
aI13
aI1
aI0
aI3
aI9
asS'PursueBehavior'
p17
(lp18
I9
aI95
aI53
aI9
aI11
aI178
aI67
aI74
aI3
aI36
aI30
aI3
aI1
aI120
aI112
aI18
aI136
aI42
aI12
aI5
aI3
aI2
aI50
aI34
aI187
aI2
aI137
aI45
aI2
aI48
aI79
aI1
aI31
aI4
aI1
aI54
aI138
aI116
aI40
aI4
aI1
aI69
aI17
aI9
aI10
aI13
aI10
aI26
aI2
aI46
aI20
aI39
aI31
aI58
aI20
aI51
aI38
aI16
aI91
aI106
aI197
aI6
aI11
aI49
aI41
aI41
aI8
aI124
aI68
aI2
aI55
aI189
aI16
aI9
aI104
aI2
aI43
aI6
aI3
aI3
aI6
aI0
aI98
aI38
aI131
aI75
aI37
aI54
aI71
aI109
aI1
aI43
aI211
aI39
aI30
aI0
aI39
aI41
aI51
aI60
aI6
aI0
aI1
aI0
aI0
aI0
aI0
aI0
aI0
aI0
aI25
aI95
aI316
aI69
aI143
asS'SeekBehavior'
p19
(lp20
I7
aI1
aI16
aI91
aI20
aI112
aI25
aI75
aI16
aI3
aI24
aI52
aI1
aI67
aI8
aI1
aI8
aI122
aI183
aI1
aI0
aI3
aI157
aI6
aI13
aI110
aI191
aI2
aI0
aI11
aI130
aI19
aI83
aI1
aI0
aI64
aI108
aI49
aI23
aI87
aI16
aI75
aI73
aI67
aI18
aI24
aI120
aI49
aI0
aI53
aI68
aI0
aI0
aI7
aI2
aI2
aI46
aI32
aI42
aI3
aI25
aI39
aI64
aI26
aI35
aI75
aI48
aI44
aI50
aI3
aI4
aI49
aI39
aI0
aI2
aI0
aI0
aI1
aI0
aI4
aI18
aI3
aI77
aI67
aI70
aI124
aI122
aI1
aI4
aI36
aI2
aI6
aI47
aI38
aI48
aI0
aI38
aI7
aI3
aI2
aI45
aI125
aI250
aI91
aI49
aI38
aI131
aI178
aI89
aI97
aI123
aI0
aI0
aI0
aI0
assI3
(dp21
S'FleeBehavior'
p22
(lp23
I9
aI3
aI35
aI4
aI9
aI215
aI13
aI146
aI5
aI1
aI50
aI153
aI10
aI141
aI109
aI19
aI79
aI13
aI13
aI0
aI4
aI4
aI52
aI93
aI65
aI12
aI32
aI33
aI22
aI199
aI191
aI0
aI70
aI56
aI2
aI124
aI71
aI10
aI8
aI12
aI1
aI46
aI12
aI72
aI148
aI13
aI43
aI77
aI1
aI12
aI33
aI2
aI1
aI7
aI1
aI12
aI107
aI3
aI87
aI35
aI156
aI24
aI2
aI40
aI129
aI3
aI10
aI125
aI14
aI2
aI7
aI88
aI20
aI0
aI8
aI1
aI4
aI1
aI1
aI2
aI15
aI0
aI33
aI70
aI43
aI19
aI59
aI2
aI5
aI29
aI1
aI3
aI95
aI3
aI44
aI1
aI5
aI13
aI3
aI2
aI0
aI0
aI33
aI0
aI0
aI0
aI40
aI40
aI0
aI40
aI0
aI0
aI33
aI0
aI0
asS'PursueBehavior'
p24
(lp25
I8
aI56
aI30
aI95
aI13
aI214
aI10
aI54
aI3
aI0
aI16
aI4
aI0
aI31
aI4
aI0
aI5
aI30
aI7
aI0
aI22
aI1
aI98
aI5
aI8
aI60
aI306
aI6
aI1
aI12
aI35
aI1
aI16
aI14
aI0
aI42
aI136
aI37
aI6
aI9
aI0
aI22
aI16
aI7
aI5
aI2
aI6
aI105
aI0
aI63
aI62
aI6
aI3
aI38
aI1
aI12
aI6
aI4
aI19
aI16
aI57
aI58
aI125
aI43
aI24
aI103
aI123
aI97
aI114
aI40
aI145
aI104
aI83
aI1
aI98
aI7
aI38
aI6
aI33
aI45
aI100
aI2
aI303
aI33
aI41
aI62
aI64
aI16
aI21
aI108
aI0
aI2
aI12
aI60
aI29
aI0
aI54
aI44
aI44
aI5
aI0
aI8
aI30
aI0
aI6
aI0
aI10
aI11
aI62
aI0
aI111
aI75
aI69
aI44
aI96
asS'SeekBehavior'
p26
(lp27
I10
aI105
aI77
aI20
aI86
aI259
aI101
aI209
aI100
aI40
aI158
aI40
aI42
aI161
aI17
aI3
aI80
aI222
aI211
aI43
aI52
aI43
aI179
aI51
aI172
aI68
aI192
aI49
aI24
aI121
aI245
aI29
aI111
aI38
aI43
aI208
aI226
aI208
aI147
aI147
aI30
aI105
aI90
aI93
aI22
aI59
aI146
aI121
aI26
aI262
aI131
aI53
aI29
aI109
aI59
aI88
aI129
aI114
aI76
aI104
aI211
aI28
aI41
aI76
aI150
aI60
aI53
aI129
aI33
aI20
aI50
aI158
aI21
aI36
aI35
aI20
aI26
aI31
aI20
aI4
aI67
aI46
aI242
aI137
aI182
aI227
aI114
aI42
aI86
aI105
aI23
aI123
aI248
aI70
aI122
aI20
aI74
aI42
aI65
aI69
aI56
aI124
aI194
aI98
aI43
aI47
aI81
aI131
aI29
aI58
aI49
aI21
aI214
aI28
aI56
asss.