(dp0
S'learn_scores'
p1
(lp2
F-404.0
aF-403.0
aF-423.0
aF-329.0
aF145.0
aF-412.0
aF-385.0
aF-443.0
aF-176.0
aF-372.0
aF-326.0
aF-315.0
aF-195.0
aF-242.0
aF-303.0
aF-394.0
aF114.0
aF-413.0
aF-179.0
aF326.0
aF240.0
aF-444.0
aF-297.0
aF-257.0
aF-227.0
aF-428.0
aF-371.0
aF-389.0
aF-306.0
aF-178.0
aF-239.0
aF-258.0
aF-50.0
aF-270.0
aF-433.0
aF-29.0
aF-483.0
aF-6.0
aF-252.0
aF-448.0
aF-157.0
aF-377.0
aF-357.0
aF-98.0
aF-370.0
aF-268.0
aF144.0
aF-336.0
aF-435.0
aF-269.0
aF-120.0
aF-400.0
aF-317.0
aF73.0
aF-1.0
aF112.0
aF-277.0
aF-395.0
aF101.0
aF2.0
aF-440.0
aF-422.0
aF-297.0
aF-244.0
aF-314.0
aF-66.0
aF-327.0
aF20.0
aF-275.0
aF-110.0
aF-300.0
aF-430.0
aF-451.0
aF-279.0
aF-306.0
aF-443.0
aF-408.0
aF-369.0
aF-412.0
aF-278.0
aF-397.0
aF-429.0
aF-435.0
aF-463.0
aF-268.0
aF-164.0
aF-440.0
aF-257.0
aF-390.0
aF-421.0
aF-423.0
aF-427.0
aF537.0
aF-464.0
aF71.0
aF-67.0
aF-214.0
aF-211.0
aF-298.0
aF-337.0
asS'test_scores'
p3
(lp4
F-64.0
aF-400.0
aF110.0
aF-357.0
aF-231.0
aF-146.0
aF-288.0
aF-406.0
aF-323.0
aF-298.0
aF-373.0
aF-406.0
aF-461.0
aF-344.0
aF-267.0
asS'behavior_count'
p5
(dp6
I1
(dp7
S'FleeBehavior'
p8
(lp9
I19
aI0
aI1
aI3
aI20
aI5
aI1
aI0
aI7
aI0
aI1
aI1
aI5
aI3
aI22
aI2
aI20
aI2
aI28
aI66
aI28
aI0
aI4
aI2
aI4
aI2
aI3
aI1
aI5
aI5
aI22
aI66
aI148
aI20
aI0
aI16
aI1
aI4
aI2
aI3
aI57
aI17
aI34
aI23
aI0
aI4
aI89
aI0
aI1
aI1
aI5
aI2
aI5
aI8
aI18
aI11
aI48
aI31
aI128
aI133
aI11
aI36
aI45
aI102
aI47
aI182
aI85
aI101
aI39
aI21
aI3
aI0
aI0
aI2
aI5
aI0
aI0
aI0
aI2
aI2
aI3
aI1
aI0
aI0
aI1
aI1
aI0
aI4
aI0
aI1
aI0
aI0
aI19
aI1
aI9
aI2
aI2
aI4
aI2
aI1
aI0
aI0
aI0
aI0
aI0
aI0
aI0
aI0
aI0
aI0
aI0
aI0
aI0
aI0
aI0
asS'PursueBehavior'
p10
(lp11
I12
aI11
aI36
aI32
aI57
aI4
aI23
aI12
aI58
aI1
aI3
aI1
aI20
aI80
aI33
aI31
aI131
aI41
aI107
aI51
aI11
aI1
aI1
aI2
aI1
aI0
aI2
aI2
aI0
aI4
aI3
aI3
aI11
aI4
aI22
aI50
aI13
aI77
aI72
aI15
aI21
aI28
aI3
aI66
aI29
aI52
aI42
aI44
aI25
aI46
aI114
aI48
aI51
aI149
aI81
aI63
aI9
aI1
aI34
aI7
aI0
aI3
aI2
aI8
aI5
aI17
aI1
aI6
aI30
aI74
aI4
aI1
aI2
aI5
aI2
aI0
aI2
aI1
aI0
aI3
aI3
aI1
aI0
aI0
aI4
aI4
aI2
aI2
aI2
aI0
aI0
aI1
aI8
aI1
aI0
aI5
aI3
aI0
aI4
aI0
aI0
aI0
aI0
aI0
aI0
aI0
aI0
aI0
aI0
aI0
aI0
aI0
aI0
aI0
aI0
asS'SeekBehavior'
p12
(lp13
I3
aI23
aI16
aI14
aI99
aI34
aI1
aI1
aI51
aI31
aI42
aI34
aI60
aI10
aI9
aI2
aI15
aI0
aI25
aI38
aI71
aI13
aI43
aI93
aI83
aI27
aI67
aI36
aI81
aI119
aI44
aI9
aI72
aI107
aI1
aI23
aI0
aI6
aI38
aI0
aI50
aI3
aI0
aI39
aI1
aI2
aI35
aI3
aI0
aI2
aI42
aI1
aI1
aI50
aI43
aI55
aI1
aI3
aI28
aI9
aI0
aI4
aI1
aI5
aI3
aI8
aI1
aI4
aI7
aI85
aI44
aI20
aI9
aI92
aI60
aI14
aI27
aI38
aI21
aI83
aI32
aI17
aI16
aI14
aI74
aI119
aI18
aI62
aI39
aI11
aI23
aI16
aI266
aI12
aI121
aI150
aI69
aI57
aI52
aI36
aI135
aI21
aI160
aI47
aI81
aI87
aI79
aI27
aI44
aI79
aI43
aI16
aI21
aI45
aI98
assI2
(dp14
S'FleeBehavior'
p15
(lp16
I6
aI0
aI12
aI2
aI17
aI8
aI2
aI10
aI69
aI31
aI40
aI32
aI83
aI48
aI20
aI29
aI93
aI23
aI13
aI32
aI74
aI13
aI31
aI71
aI49
aI26
aI54
aI0
aI5
aI22
aI2
aI5
aI22
aI8
aI2
aI4
aI0
aI2
aI16
aI15
aI91
aI5
aI0
aI30
aI2
aI4
aI38
aI0
aI0
aI1
aI5
aI4
aI4
aI22
aI15
aI17
aI13
aI0
aI9
aI22
aI0
aI3
aI1
aI3
aI0
aI7
aI5
aI11
aI6
aI102
aI20
aI16
aI10
aI82
aI63
aI12
aI21
aI34
aI20
aI69
aI27
aI12
aI15
aI11
aI51
aI110
aI15
aI53
aI24
aI4
aI10
aI0
aI61
aI0
aI10
aI61
aI3
aI4
aI11
aI0
aI0
aI0
aI0
aI0
aI0
aI0
aI0
aI0
aI0
aI0
aI0
aI0
aI0
aI0
aI0
asS'PursueBehavior'
p17
(lp18
I20
aI23
aI2
aI5
aI63
aI2
aI1
aI0
aI17
aI1
aI0
aI1
aI1
aI34
aI42
aI5
aI49
aI14
aI129
aI86
aI27
aI0
aI3
aI2
aI3
aI1
aI2
aI1
aI3
aI2
aI6
aI2
aI23
aI39
aI1
aI4
aI1
aI13
aI3
aI0
aI4
aI1
aI0
aI7
aI1
aI1
aI9
aI5
aI0
aI2
aI15
aI1
aI5
aI35
aI44
aI52
aI10
aI2
aI36
aI85
aI9
aI38
aI43
aI101
aI49
aI183
aI27
aI46
aI3
aI53
aI29
aI0
aI0
aI3
aI3
aI1
aI3
aI1
aI2
aI3
aI1
aI0
aI0
aI0
aI2
aI5
aI0
aI3
aI2
aI0
aI0
aI0
aI65
aI1
aI33
aI30
aI4
aI3
aI0
aI0
aI40
aI0
aI2
aI0
aI0
aI0
aI0
aI0
aI0
aI0
aI0
aI0
aI0
aI0
aI0
asS'SeekBehavior'
p19
(lp20
I8
aI11
aI39
aI42
aI96
aI32
aI22
aI3
aI30
aI0
aI6
aI2
aI1
aI10
aI1
aI1
aI24
aI6
aI18
aI36
aI9
aI1
aI14
aI24
aI35
aI2
aI16
aI38
aI78
aI104
aI61
aI71
aI186
aI83
aI20
aI81
aI13
aI71
aI93
aI3
aI32
aI42
aI37
aI91
aI27
aI53
aI119
aI41
aI26
aI46
aI141
aI46
aI48
aI150
aI82
aI60
aI34
aI33
aI145
aI41
aI1
aI1
aI4
aI11
aI5
aI17
aI55
aI54
aI66
aI25
aI1
aI5
aI1
aI14
aI1
aI0
aI5
aI4
aI0
aI16
aI10
aI7
aI0
aI3
aI26
aI9
aI5
aI11
aI15
aI8
aI13
aI17
aI167
aI13
aI87
aI66
aI67
aI54
aI47
aI37
aI94
aI21
aI158
aI47
aI81
aI86
aI78
aI27
aI43
aI79
aI43
aI16
aI21
aI45
aI97
asss.