(dp0
S'learn_scores'
p1
(lp2
F-407.0
aF-372.0
aF-317.0
aF-439.0
aF-376.0
aF-285.0
aF-381.0
aF-448.0
aF-362.0
aF-353.0
aF-348.0
aF-377.0
aF-339.0
aF-417.0
aF-432.0
aF-451.0
aF-454.0
aF-426.0
aF-446.0
aF-386.0
aF-348.0
aF-429.0
aF-32.0
aF-428.0
aF-445.0
aF-358.0
aF-386.0
aF-412.0
aF-332.0
aF-378.0
aF-393.0
aF-401.0
aF-293.0
aF-324.0
aF-278.0
aF-325.0
aF-343.0
aF756.0
aF-385.0
aF-324.0
aF-400.0
aF46.0
aF-375.0
aF69.0
aF227.0
aF-401.0
aF231.0
aF-199.0
aF-386.0
aF-353.0
aF-386.0
aF-149.0
aF-387.0
aF-386.0
aF-284.0
aF-377.0
aF-393.0
aF-413.0
aF-291.0
aF-260.0
aF-334.0
aF145.0
aF-299.0
aF-211.0
aF-422.0
aF-279.0
aF-378.0
aF-258.0
aF-319.0
aF-261.0
aF-408.0
aF-403.0
aF-370.0
aF-417.0
aF-413.0
aF-458.0
aF12.0
aF-429.0
aF-420.0
aF-363.0
aF-315.0
aF-425.0
aF-394.0
aF-375.0
aF-368.0
aF-419.0
aF-450.0
aF-447.0
aF-349.0
aF-289.0
aF-422.0
aF-282.0
aF-423.0
aF-157.0
aF-370.0
aF-379.0
aF-397.0
aF-366.0
aF-462.0
aF-369.0
asS'test_scores'
p3
(lp4
F-427.0
aF-397.0
aF-453.0
aF-388.0
aF-453.0
aF-347.0
aF-374.0
aF-434.0
aF-355.0
aF-419.0
aF-25.0
aF-257.0
aF-191.0
aF-472.0
aF-348.0
asS'behavior_count'
p5
(dp6
I1
(dp7
S'FleeBehavior'
p8
(lp9
I5
aI23
aI1
aI1
aI1
aI5
aI20
aI37
aI20
aI22
aI15
aI2
aI1
aI0
aI0
aI2
aI11
aI16
aI14
aI34
aI8
aI2
aI43
aI8
aI15
aI25
aI16
aI30
aI8
aI37
aI14
aI8
aI50
aI21
aI27
aI38
aI37
aI24
aI0
aI1
aI1
aI22
aI20
aI23
aI6
aI14
aI42
aI77
aI17
aI32
aI49
aI51
aI17
aI16
aI41
aI16
aI14
aI11
aI44
aI57
aI22
aI63
aI32
aI55
aI10
aI46
aI17
aI36
aI46
aI35
aI18
aI11
aI16
aI27
aI13
aI28
aI43
aI18
aI20
aI23
aI33
aI14
aI14
aI24
aI37
aI9
aI19
aI17
aI17
aI85
aI11
aI80
aI14
aI143
aI18
aI28
aI16
aI44
aI29
aI26
aI37
aI27
aI23
aI29
aI24
aI48
aI45
aI14
aI35
aI9
aI95
aI38
aI81
aI42
aI29
asS'PursueBehavior'
p10
(lp11
I10
aI9
aI27
aI7
aI12
aI8
aI0
aI1
aI2
aI0
aI6
aI0
aI1
aI1
aI0
aI0
aI0
aI1
aI2
aI1
aI2
aI0
aI14
aI1
aI0
aI0
aI0
aI3
aI13
aI0
aI7
aI0
aI4
aI6
aI4
aI9
aI2
aI24
aI15
aI42
aI17
aI54
aI6
aI23
aI57
aI8
aI9
aI1
aI0
aI1
aI3
aI8
aI1
aI0
aI3
aI1
aI0
aI2
aI2
aI1
aI0
aI3
aI2
aI1
aI1
aI1
aI1
aI1
aI3
aI4
aI0
aI1
aI4
aI0
aI0
aI0
aI3
aI0
aI0
aI0
aI2
aI0
aI1
aI0
aI1
aI0
aI0
aI0
aI1
aI2
aI0
aI2
aI0
aI6
aI1
aI1
aI1
aI2
aI1
aI3
aI0
aI0
aI0
aI0
aI0
aI0
aI0
aI0
aI0
aI0
aI0
aI0
aI0
aI0
aI0
asS'SeekBehavior'
p12
(lp13
I3
aI0
aI9
aI22
aI3
aI22
aI1
aI0
aI0
aI2
aI7
aI36
aI17
aI27
aI22
aI20
aI13
aI0
aI0
aI2
aI8
aI8
aI35
aI0
aI1
aI3
aI1
aI0
aI2
aI2
aI3
aI24
aI9
aI8
aI18
aI8
aI4
aI86
aI1
aI2
aI2
aI9
aI0
aI26
aI10
aI0
aI8
aI12
aI0
aI1
aI5
aI10
aI0
aI1
aI0
aI0
aI0
aI1
aI6
aI3
aI2
aI40
aI5
aI16
aI1
aI3
aI0
aI2
aI0
aI2
aI0
aI2
aI0
aI0
aI1
aI1
aI2
aI1
aI1
aI1
aI1
aI1
aI0
aI1
aI0
aI1
aI2
aI0
aI1
aI3
aI2
aI1
aI0
aI8
aI1
aI0
aI1
aI0
aI2
aI1
aI0
aI0
aI0
aI0
aI0
aI0
aI0
aI0
aI0
aI0
aI0
aI0
aI0
aI0
aI0
assI2
(dp14
S'FleeBehavior'
p15
(lp16
I2
aI1
aI2
aI0
aI0
aI20
aI21
aI35
aI20
aI23
aI26
aI36
aI19
aI27
aI19
aI19
aI24
aI17
aI15
aI23
aI17
aI9
aI49
aI1
aI2
aI0
aI5
aI12
aI21
aI28
aI1
aI1
aI17
aI25
aI37
aI34
aI4
aI29
aI2
aI28
aI18
aI58
aI24
aI43
aI54
aI7
aI12
aI59
aI17
aI31
aI55
aI39
aI6
aI3
aI13
aI4
aI4
aI1
aI5
aI18
aI3
aI21
aI7
aI22
aI5
aI7
aI17
aI35
aI48
aI38
aI14
aI11
aI15
aI22
aI11
aI27
aI37
aI18
aI21
aI21
aI33
aI13
aI15
aI25
aI34
aI10
aI21
aI16
aI19
aI84
aI13
aI76
aI14
aI126
aI19
aI27
aI18
aI43
aI18
aI4
aI21
aI27
aI23
aI29
aI24
aI48
aI45
aI14
aI35
aI9
aI95
aI37
aI81
aI42
aI29
asS'PursueBehavior'
p17
(lp18
I11
aI1
aI3
aI2
aI0
aI2
aI0
aI1
aI0
aI0
aI1
aI1
aI0
aI1
aI1
aI2
aI0
aI0
aI0
aI0
aI0
aI0
aI17
aI1
aI0
aI1
aI0
aI1
aI1
aI2
aI1
aI0
aI0
aI2
aI2
aI12
aI4
aI35
aI2
aI2
aI2
aI3
aI0
aI10
aI19
aI3
aI13
aI15
aI0
aI3
aI0
aI11
aI9
aI13
aI30
aI13
aI10
aI11
aI47
aI40
aI20
aI82
aI32
aI46
aI7
aI40
aI0
aI2
aI1
aI2
aI4
aI3
aI5
aI4
aI1
aI1
aI9
aI0
aI0
aI1
aI2
aI2
aI0
aI0
aI0
aI0
aI0
aI0
aI0
aI2
aI0
aI7
aI0
aI23
aI0
aI0
aI0
aI3
aI12
aI25
aI16
aI0
aI0
aI0
aI0
aI0
aI0
aI0
aI0
aI0
aI0
aI0
aI0
aI0
aI0
asS'SeekBehavior'
p19
(lp20
I5
aI30
aI32
aI28
aI16
aI13
aI0
aI2
aI2
aI1
aI1
aI1
aI0
aI0
aI2
aI1
aI0
aI0
aI1
aI14
aI1
aI0
aI26
aI7
aI14
aI27
aI12
aI20
aI1
aI8
aI22
aI30
aI46
aI8
aI10
aI9
aI35
aI70
aI12
aI15
aI0
aI24
aI1
aI19
aI0
aI11
aI34
aI16
aI0
aI0
aI2
aI19
aI2
aI1
aI1
aI0
aI0
aI1
aI0
aI3
aI1
aI2
aI0
aI4
aI0
aI3
aI1
aI2
aI0
aI1
aI0
aI0
aI0
aI1
aI2
aI1
aI2
aI1
aI0
aI1
aI0
aI0
aI0
aI0
aI4
aI0
aI0
aI1
aI0
aI3
aI0
aI0
aI0
aI8
aI1
aI2
aI0
aI0
aI2
aI0
aI0
aI0
aI0
aI0
aI0
aI0
aI0
aI0
aI0
aI0
aI0
aI0
aI0
aI0
aI0
assI3
(dp21
S'FleeBehavior'
p22
(lp23
I3
aI0
aI1
aI0
aI1
aI4
aI19
aI12
aI5
aI22
aI26
aI37
aI16
aI22
aI3
aI12
aI20
aI13
aI15
aI31
aI15
aI7
aI47
aI5
aI14
aI26
aI12
aI31
aI22
aI34
aI22
aI27
aI57
aI31
aI37
aI15
aI6
aI18
aI2
aI3
aI2
aI2
aI1
aI14
aI24
aI12
aI36
aI65
aI12
aI10
aI12
aI39
aI6
aI10
aI2
aI2
aI1
aI0
aI3
aI4
aI1
aI65
aI31
aI60
aI0
aI12
aI1
aI10
aI32
aI13
aI1
aI1
aI0
aI0
aI0
aI1
aI29
aI0
aI2
aI1
aI12
aI1
aI1
aI11
aI21
aI8
aI17
aI8
aI15
aI44
aI9
aI59
aI11
aI84
aI5
aI19
aI3
aI1
aI19
aI12
aI29
aI27
aI23
aI17
aI23
aI48
aI42
aI14
aI33
aI7
aI82
aI36
aI81
aI42
aI27
asS'PursueBehavior'
p24
(lp25
I10
aI9
aI29
aI29
aI15
aI22
aI2
aI22
aI16
aI2
aI1
aI0
aI3
aI5
aI19
aI9
aI3
aI3
aI1
aI5
aI2
aI2
aI27
aI4
aI1
aI0
aI3
aI1
aI0
aI1
aI2
aI3
aI5
aI2
aI10
aI16
aI26
aI58
aI6
aI35
aI16
aI27
aI23
aI40
aI30
aI9
aI16
aI23
aI4
aI23
aI43
aI29
aI10
aI5
aI40
aI14
aI13
aI12
aI44
aI55
aI23
aI28
aI8
aI9
aI12
aI37
aI17
aI27
aI15
aI27
aI16
aI9
aI20
aI24
aI13
aI28
aI12
aI18
aI19
aI22
aI22
aI14
aI13
aI12
aI15
aI2
aI2
aI7
aI4
aI41
aI3
aI20
aI3
aI68
aI14
aI10
aI12
aI43
aI10
aI16
aI8
aI0
aI0
aI11
aI1
aI0
aI3
aI0
aI2
aI2
aI13
aI1
aI0
aI0
aI2
asS'SeekBehavior'
p26
(lp27
I5
aI23
aI7
aI1
aI0
aI9
aI0
aI4
aI1
aI0
aI1
aI1
aI0
aI1
aI0
aI0
aI1
aI1
aI0
aI0
aI1
aI0
aI18
aI0
aI0
aI2
aI1
aI1
aI0
aI3
aI0
aI1
aI1
aI1
aI2
aI24
aI11
aI58
aI7
aI6
aI2
aI56
aI1
aI18
aI19
aI0
aI7
aI2
aI1
aI1
aI2
aI1
aI1
aI1
aI2
aI1
aI0
aI1
aI4
aI1
aI0
aI12
aI0
aI2
aI0
aI1
aI0
aI1
aI2
aI1
aI1
aI3
aI0
aI3
aI0
aI0
aI7
aI1
aI0
aI0
aI1
aI0
aI1
aI2
aI2
aI0
aI1
aI2
aI0
aI4
aI1
aI3
aI0
aI5
aI1
aI0
aI2
aI2
aI3
aI1
aI0
aI0
aI0
aI0
aI0
aI0
aI0
aI0
aI0
aI0
aI0
aI0
aI0
aI0
aI0
assI4
(dp28
S'FleeBehavior'
p29
(lp30
I11
aI3
aI0
aI0
aI1
aI3
aI19
aI35
aI20
aI19
aI6
aI1
aI2
aI0
aI0
aI2
aI0
aI0
aI1
aI2
aI1
aI0
aI15
aI1
aI0
aI0
aI0
aI2
aI0
aI0
aI1
aI1
aI3
aI1
aI2
aI6
aI5
aI40
aI0
aI1
aI1
aI33
aI0
aI18
aI15
aI1
aI11
aI47
aI0
aI2
aI10
aI46
aI3
aI0
aI3
aI0
aI0
aI1
aI1
aI3
aI1
aI9
aI2
aI2
aI0
aI1
aI0
aI0
aI1
aI0
aI0
aI1
aI1
aI0
aI2
aI0
aI32
aI0
aI0
aI1
aI4
aI0
aI1
aI1
aI2
aI0
aI0
aI0
aI1
aI3
aI0
aI39
aI0
aI39
aI1
aI1
aI0
aI1
aI1
aI0
aI3
aI16
aI12
aI21
aI13
aI30
aI42
aI14
aI35
aI7
aI91
aI37
aI80
aI42
aI28
asS'PursueBehavior'
p31
(lp32
I6
aI25
aI31
aI24
aI15
aI24
aI2
aI3
aI1
aI4
aI22
aI36
aI17
aI25
aI21
aI19
aI22
aI12
aI14
aI33
aI17
aI9
aI64
aI8
aI13
aI28
aI13
aI19
aI17
aI4
aI11
aI29
aI51
aI30
aI37
aI48
aI33
aI53
aI8
aI10
aI2
aI14
aI25
aI47
aI34
aI19
aI31
aI36
aI17
aI31
aI45
aI20
aI12
aI3
aI14
aI8
aI12
aI12
aI36
aI39
aI7
aI35
aI9
aI26
aI3
aI17
aI12
aI35
aI37
aI25
aI16
aI12
aI18
aI26
aI11
aI29
aI15
aI18
aI20
aI22
aI31
aI15
aI14
aI24
aI35
aI9
aI20
aI17
aI18
aI81
aI13
aI41
aI12
aI112
aI18
aI27
aI16
aI44
aI31
aI27
aI34
aI11
aI11
aI7
aI11
aI18
aI2
aI0
aI0
aI2
aI4
aI0
aI1
aI0
aI0
asS'SeekBehavior'
p33
(lp34
I1
aI4
aI6
aI5
aI0
aI8
aI0
aI0
aI1
aI1
aI0
aI1
aI0
aI2
aI1
aI0
aI2
aI4
aI1
aI1
aI0
aI0
aI13
aI0
aI2
aI0
aI3
aI12
aI5
aI34
aI12
aI1
aI9
aI3
aI9
aI1
aI5
aI41
aI7
aI33
aI17
aI38
aI0
aI7
aI24
aI1
aI17
aI7
aI0
aI0
aI1
aI3
aI2
aI13
aI27
aI9
aI2
aI0
aI14
aI18
aI16
aI61
aI28
aI43
aI9
aI31
aI6
aI3
aI11
aI16
aI2
aI0
aI1
aI1
aI0
aI0
aI1
aI1
aI0
aI0
aI0
aI0
aI0
aI0
aI1
aI1
aI0
aI0
aI0
aI5
aI0
aI2
aI2
aI6
aI1
aI1
aI1
aI1
aI0
aI2
aI0
aI0
aI0
aI0
aI0
aI0
aI0
aI0
aI0
aI0
aI0
aI0
aI0
aI0
aI0
asss.