(dp0
S'learn_scores'
p1
(lp2
F790.0
aF290.0
aF-285.0
aF-347.0
aF1728.0
aF-94.0
aF817.0
aF1546.0
aF-216.0
aF1544.0
aF-351.0
aF-419.0
aF465.0
aF556.0
aF-383.0
aF-338.0
aF-195.0
aF-365.0
aF-365.0
aF-633.0
aF-419.0
aF-249.0
aF576.0
aF-428.0
aF162.0
aF-320.0
aF-401.0
aF-329.0
aF-383.0
aF-230.0
aF-428.0
aF573.0
aF1101.0
aF342.0
aF353.0
aF-401.0
aF-188.0
aF1306.0
aF-294.0
aF-428.0
aF327.0
aF-392.0
aF-428.0
aF-410.0
aF-321.0
aF2131.0
aF-401.0
aF-40.0
aF-194.0
aF101.0
aF-428.0
aF981.0
aF-383.0
aF614.0
aF-428.0
aF504.0
aF-392.0
aF252.0
aF147.0
aF369.0
aF1943.0
aF-330.0
aF-180.0
aF-392.0
aF-419.0
aF-365.0
aF-410.0
aF-392.0
aF-325.0
aF-266.0
aF-766.0
aF-302.0
aF853.0
aF-329.0
aF-118.0
aF-366.0
aF352.0
aF61.0
aF268.0
aF-293.0
aF-315.0
aF-257.0
aF-306.0
aF-253.0
aF-179.0
aF-392.0
aF-419.0
aF-419.0
aF-419.0
aF-401.0
aF872.0
aF-302.0
aF262.0
aF-410.0
aF-392.0
aF149.0
aF108.0
aF-257.0
aF277.0
aF1138.0
asS'test_scores'
p3
(lp4
F-401.0
aF-329.0
aF-419.0
aF-401.0
aF-30.0
aF-320.0
aF1291.0
aF684.0
aF68.0
aF1946.0
aF2340.0
aF-356.0
aF-302.0
aF-428.0
aF-117.0
asS'behavior_count'
p5
(dp6
I1
(dp7
S'FleeBehavior'
p8
(lp9
I23
aI24
aI0
aI1
aI44
aI10
aI30
aI34
aI1
aI44
aI0
aI0
aI37
aI6
aI12
aI10
aI2
aI6
aI7
aI15
aI2
aI11
aI43
aI1
aI46
aI1
aI0
aI0
aI0
aI0
aI1
aI27
aI39
aI1
aI8
aI0
aI0
aI25
aI2
aI1
aI4
aI3
aI2
aI1
aI0
aI23
aI0
aI0
aI0
aI4
aI0
aI23
aI1
aI25
aI0
aI11
aI9
aI30
aI29
aI27
aI31
aI0
aI2
aI1
aI0
aI1
aI0
aI1
aI0
aI4
aI10
aI13
aI31
aI19
aI47
aI7
aI38
aI15
aI25
aI12
aI13
aI15
aI16
aI14
aI25
aI5
aI7
aI6
aI5
aI5
aI76
aI0
aI22
aI1
aI1
aI0
aI3
aI1
aI16
aI31
aI0
aI0
aI0
aI0
aI0
aI0
aI42
aI36
aI0
aI9
aI52
aI0
aI0
aI0
aI0
asS'PursueBehavior'
p10
(lp11
I35
aI20
aI14
aI10
aI31
aI1
aI17
aI30
aI20
aI38
aI21
aI2
aI21
aI20
aI0
aI1
aI22
aI4
aI3
aI14
aI2
aI11
aI24
aI0
aI13
aI11
aI2
aI5
aI4
aI14
aI1
aI21
aI15
aI7
aI16
aI1
aI7
aI11
aI13
aI1
aI16
aI9
aI6
aI8
aI21
aI82
aI1
aI4
aI0
aI3
aI0
aI39
aI3
aI25
aI7
aI34
aI3
aI18
aI23
aI33
aI69
aI19
aI37
aI9
aI8
aI13
aI9
aI11
aI26
aI17
aI9
aI3
aI65
aI1
aI1
aI1
aI17
aI42
aI18
aI10
aI12
aI11
aI9
aI20
aI9
aI1
aI3
aI1
aI5
aI4
aI21
aI17
aI38
aI3
aI6
aI19
aI39
aI1
aI5
aI39
aI3
aI18
aI1
aI4
aI39
aI16
aI38
aI29
aI24
aI75
aI30
aI0
aI0
aI0
aI0
asS'SeekBehavior'
p12
(lp13
I32
aI7
aI11
aI7
aI67
aI14
aI47
aI60
aI16
aI44
aI1
aI8
aI47
aI28
aI2
aI8
aI12
aI5
aI5
aI14
aI6
aI8
aI27
aI8
aI10
aI8
aI9
aI15
aI9
aI16
aI6
aI10
aI55
aI81
aI34
aI10
aI31
aI78
aI9
aI6
aI44
aI0
aI0
aI1
aI1
aI34
aI11
aI26
aI35
aI73
aI8
aI38
aI10
aI16
aI1
aI32
aI0
aI1
aI1
aI1
aI27
aI2
aI2
aI2
aI1
aI1
aI2
aI1
aI0
aI6
aI7
aI6
aI21
aI0
aI0
aI8
aI4
aI22
aI29
aI2
aI1
aI1
aI1
aI0
aI6
aI6
aI0
aI2
aI0
aI2
aI12
aI5
aI19
aI6
aI5
aI13
aI40
aI26
aI22
aI42
aI8
aI1
aI8
aI8
aI21
aI5
aI29
aI41
aI48
aI40
aI48
aI17
aI23
aI8
aI48
assI2
(dp14
S'FleeBehavior'
p15
(lp16
I29
aI22
aI24
aI15
aI61
aI14
aI49
aI58
aI13
aI51
aI22
aI0
aI48
aI17
aI1
aI1
aI6
aI2
aI8
aI27
aI1
aI20
aI27
aI5
aI34
aI1
aI0
aI11
aI4
aI10
aI1
aI17
aI3
aI5
aI5
aI2
aI28
aI31
aI0
aI0
aI3
aI0
aI0
aI1
aI1
aI17
aI0
aI2
aI10
aI21
aI3
aI37
aI0
aI5
aI0
aI0
aI0
aI5
aI45
aI3
aI55
aI1
aI0
aI0
aI1
aI1
aI0
aI0
aI1
aI2
aI1
aI1
aI14
aI0
aI16
aI2
aI12
aI33
aI33
aI10
aI14
aI7
aI14
aI9
aI4
aI1
aI2
aI2
aI2
aI3
aI70
aI0
aI2
aI0
aI0
aI2
aI1
aI1
aI14
aI24
aI0
aI0
aI0
aI0
aI0
aI0
aI2
aI11
aI0
aI6
aI47
aI0
aI0
aI0
aI0
asS'PursueBehavior'
p17
(lp18
I29
aI7
aI0
aI3
aI50
aI2
aI29
aI58
aI22
aI70
aI0
aI8
aI51
aI32
aI12
aI18
aI29
aI13
aI6
aI16
aI8
aI10
aI45
aI0
aI13
aI2
aI1
aI2
aI0
aI8
aI2
aI31
aI46
aI79
aI50
aI7
aI10
aI62
aI23
aI8
aI59
aI1
aI0
aI0
aI1
aI18
aI10
aI26
aI20
aI50
aI4
aI33
aI11
aI53
aI8
aI34
aI0
aI1
aI5
aI20
aI59
aI13
aI39
aI9
aI2
aI5
aI0
aI8
aI14
aI3
aI8
aI4
aI48
aI17
aI22
aI13
aI29
aI37
aI20
aI12
aI10
aI19
aI12
aI22
aI36
aI10
aI7
aI6
aI7
aI8
aI29
aI21
aI48
aI10
aI12
aI23
aI77
aI25
aI27
aI84
aI11
aI19
aI9
aI10
aI59
aI21
aI65
aI94
aI71
aI99
aI38
aI0
aI0
aI0
aI0
asS'SeekBehavior'
p19
(lp20
I32
aI22
aI1
aI0
aI31
aI8
aI15
aI8
aI2
aI5
aI0
aI2
aI6
aI5
aI1
aI0
aI1
aI0
aI1
aI0
aI1
aI0
aI22
aI4
aI22
aI17
aI10
aI7
aI9
aI12
aI5
aI10
aI60
aI5
aI3
aI2
aI0
aI21
aI1
aI0
aI2
aI11
aI8
aI9
aI20
aI104
aI2
aI2
aI5
aI9
aI1
aI30
aI3
aI8
aI0
aI43
aI12
aI43
aI3
aI38
aI13
aI7
aI2
aI3
aI6
aI9
aI11
aI5
aI11
aI22
aI17
aI17
aI55
aI3
aI10
aI1
aI18
aI9
aI19
aI2
aI2
aI1
aI0
aI3
aI0
aI1
aI1
aI1
aI1
aI0
aI10
aI1
aI29
aI0
aI0
aI6
aI4
aI2
aI2
aI4
aI0
aI0
aI0
aI2
aI1
aI0
aI42
aI1
aI1
aI19
aI45
aI17
aI23
aI8
aI48
assI3
(dp21
S'FleeBehavior'
p22
(lp23
I34
aI16
aI24
aI16
aI34
aI9
aI48
aI56
aI32
aI67
aI0
aI1
aI63
aI23
aI14
aI16
aI13
aI14
aI11
aI37
aI4
aI23
aI50
aI0
aI39
aI3
aI0
aI0
aI1
aI5
aI1
aI39
aI60
aI40
aI35
aI2
aI1
aI42
aI0
aI0
aI11
aI0
aI0
aI2
aI0
aI26
aI1
aI9
aI2
aI1
aI1
aI42
aI1
aI44
aI0
aI32
aI0
aI0
aI2
aI11
aI61
aI17
aI8
aI1
aI0
aI5
aI0
aI9
aI15
aI5
aI4
aI6
aI59
aI4
aI4
aI1
aI11
aI36
aI52
aI6
aI22
aI7
aI6
aI20
aI3
aI2
aI2
aI2
aI1
aI2
aI71
aI0
aI4
aI0
aI0
aI0
aI1
aI1
aI13
aI4
aI0
aI0
aI0
aI0
aI0
aI2
aI30
aI35
aI0
aI0
aI5
aI0
aI0
aI0
aI0
asS'PursueBehavior'
p24
(lp25
I36
aI24
aI0
aI0
aI54
aI3
aI33
aI65
aI2
aI44
aI22
aI7
aI38
aI30
aI0
aI2
aI23
aI1
aI4
aI4
aI4
aI5
aI40
aI8
aI30
aI15
aI11
aI17
aI11
aI20
aI6
aI17
aI35
aI48
aI18
aI6
aI35
aI66
aI23
aI8
aI52
aI1
aI0
aI1
aI1
aI66
aI10
aI19
aI32
aI73
aI6
aI32
aI0
aI1
aI0
aI30
aI12
aI36
aI44
aI46
aI51
aI2
aI30
aI10
aI9
aI9
aI9
aI4
aI11
aI21
aI20
aI14
aI51
aI12
aI43
aI15
aI35
aI39
aI17
aI14
aI2
aI16
aI20
aI13
aI33
aI8
aI7
aI6
aI7
aI8
aI33
aI22
aI73
aI10
aI12
aI29
aI72
aI25
aI30
aI98
aI10
aI18
aI8
aI11
aI59
aI19
aI77
aI71
aI72
aI123
aI84
aI0
aI0
aI0
aI0
asS'SeekBehavior'
p26
(lp27
I20
aI11
aI1
aI1
aI54
aI12
aI12
aI3
aI3
aI15
aI0
aI1
aI4
aI1
aI0
aI0
aI0
aI0
aI0
aI2
aI1
aI2
aI4
aI0
aI0
aI2
aI0
aI3
aI1
aI5
aI1
aI2
aI14
aI0
aI4
aI3
aI2
aI6
aI1
aI0
aI1
aI11
aI8
aI7
aI21
aI47
aI0
aI2
aI0
aI6
aI1
aI25
aI12
aI21
aI8
aI15
aI0
aI13
aI7
aI4
aI15
aI1
aI3
aI1
aI0
aI1
aI1
aI0
aI0
aI0
aI2
aI2
aI7
aI3
aI1
aI0
aI12
aI4
aI3
aI3
aI1
aI4
aI0
aI1
aI4
aI2
aI0
aI1
aI1
aI1
aI5
aI0
aI1
aI0
aI0
aI2
aI9
aI1
aI0
aI10
aI1
aI1
aI1
aI0
aI1
aI0
aI2
aI0
aI0
aI1
aI41
aI16
aI22
aI8
aI47
assI4
(dp28
S'FleeBehavior'
p29
(lp30
I43
aI11
aI1
aI13
aI64
aI2
aI24
aI64
aI17
aI24
aI18
aI7
aI39
aI10
aI13
aI17
aI14
aI7
aI5
aI7
aI6
aI25
aI22
aI1
aI29
aI20
aI11
aI19
aI6
aI27
aI7
aI18
aI8
aI3
aI2
aI1
aI2
aI7
aI2
aI0
aI2
aI1
aI0
aI1
aI2
aI15
aI0
aI2
aI1
aI10
aI0
aI6
aI0
aI3
aI0
aI3
aI0
aI4
aI19
aI3
aI26
aI1
aI3
aI0
aI0
aI0
aI1
aI0
aI0
aI0
aI0
aI3
aI9
aI2
aI1
aI0
aI7
aI3
aI1
aI0
aI1
aI2
aI0
aI2
aI6
aI3
aI1
aI7
aI2
aI3
aI17
aI0
aI1
aI0
aI0
aI0
aI2
aI1
aI2
aI6
aI0
aI0
aI0
aI0
aI1
aI1
aI13
aI1
aI0
aI4
aI3
aI0
aI0
aI0
aI0
asS'PursueBehavior'
p31
(lp32
I22
aI18
aI24
aI2
aI41
aI20
aI36
aI24
aI7
aI46
aI2
aI1
aI44
aI23
aI1
aI0
aI10
aI4
aI8
aI14
aI3
aI3
aI45
aI7
aI34
aI0
aI0
aI0
aI1
aI0
aI0
aI31
aI50
aI79
aI40
aI4
aI27
aI64
aI12
aI6
aI42
aI9
aI8
aI7
aI18
aI48
aI0
aI10
aI1
aI9
aI2
aI41
aI3
aI42
aI0
aI36
aI2
aI10
aI29
aI15
aI97
aI14
aI7
aI1
aI7
aI6
aI9
aI10
aI15
aI19
aI22
aI13
aI16
aI6
aI2
aI10
aI2
aI24
aI28
aI17
aI15
aI20
aI12
aI24
aI10
aI4
aI2
aI0
aI2
aI1
aI66
aI2
aI5
aI5
aI1
aI3
aI50
aI24
aI37
aI61
aI8
aI1
aI4
aI2
aI7
aI3
aI5
aI48
aI3
aI15
aI55
aI2
aI0
aI0
aI3
asS'SeekBehavior'
p33
(lp34
I25
aI22
aI0
aI2
aI37
aI2
aI33
aI36
aI13
aI56
aI2
aI1
aI22
aI21
aI0
aI1
aI12
aI4
aI2
aI22
aI0
aI2
aI27
aI0
aI6
aI0
aI0
aI1
aI6
aI3
aI1
aI9
aI51
aI6
aI15
aI6
aI9
aI43
aI10
aI2
aI20
aI2
aI0
aI2
aI2
aI76
aI11
aI18
aI32
aI61
aI6
aI52
aI10
aI21
aI8
aI37
aI10
aI35
aI5
aI43
aI4
aI5
aI31
aI11
aI2
aI9
aI0
aI3
aI11
aI7
aI4
aI6
aI92
aI11
aI45
aI6
aI49
aI52
aI43
aI6
aI9
aI5
aI14
aI8
aI24
aI5
aI6
aI2
aI5
aI7
aI26
aI20
aI72
aI5
aI11
aI28
aI30
aI2
aI4
aI45
aI3
aI18
aI5
aI9
aI52
aI17
aI91
aI57
aI69
aI105
aI72
aI14
aI22
aI8
aI44
asss.