(dp0
S'learn_scores'
p1
(lp2
F-258.0
aF1938.0
aF531.0
aF331.0
aF1738.0
aF-106.0
aF649.0
aF1544.0
aF105.0
aF-294.0
aF-374.0
aF-349.0
aF-320.0
aF-320.0
aF1727.0
aF-285.0
aF164.0
aF654.0
aF299.0
aF-311.0
aF116.0
aF-34.0
aF1748.0
aF175.0
aF-128.0
aF-219.0
aF533.0
aF285.0
aF1739.0
aF-419.0
aF-111.0
aF-401.0
aF-231.0
aF90.0
aF-311.0
aF-338.0
aF12.0
aF-329.0
aF-410.0
aF-105.0
aF515.0
aF-311.0
aF-410.0
aF3.0
aF-428.0
aF565.0
aF1940.0
aF1349.0
aF-293.0
aF2338.0
aF-383.0
aF-248.0
aF-312.0
aF-366.0
aF368.0
aF-266.0
aF-311.0
aF-428.0
aF-910.0
aF40.0
aF-419.0
aF-293.0
aF-347.0
aF-392.0
aF-392.0
aF-306.0
aF-350.0
aF1735.0
aF994.0
aF-58.0
aF-55.0
aF-285.0
aF-18.0
aF-172.0
aF-347.0
aF515.0
aF-137.0
aF1344.0
aF-329.0
aF-240.0
aF-347.0
aF-97.0
aF934.0
aF434.0
aF-419.0
aF-289.0
aF-383.0
aF494.0
aF350.0
aF1335.0
aF2141.0
aF319.0
aF-365.0
aF-6.0
aF-374.0
aF254.0
aF-428.0
aF-428.0
aF-57.0
aF-320.0
asS'test_scores'
p3
(lp4
F-275.0
aF-419.0
aF185.0
aF-76.0
aF-419.0
aF1535.0
aF1950.0
aF-365.0
aF-392.0
aF1338.0
aF-93.0
aF-155.0
aF-255.0
aF300.0
aF366.0
asS'behavior_count'
p5
(dp6
I1
(dp7
S'FleeBehavior'
p8
(lp9
I12
aI82
aI66
aI25
aI55
aI14
aI74
aI47
aI23
aI0
aI1
aI17
aI21
aI21
aI74
aI23
aI23
aI62
aI14
aI21
aI48
aI44
aI55
aI4
aI1
aI1
aI8
aI29
aI104
aI9
aI46
aI8
aI30
aI64
aI19
aI16
aI28
aI19
aI8
aI43
aI66
aI21
aI8
aI29
aI9
aI38
aI53
aI41
aI23
aI53
aI10
aI27
aI20
aI14
aI36
aI26
aI18
aI8
aI8
aI32
aI9
aI19
aI17
aI12
aI13
aI22
aI19
aI71
aI39
aI57
aI50
aI22
aI28
aI39
aI15
aI44
aI44
aI53
aI19
aI27
aI14
aI41
aI52
aI54
aI8
aI26
aI12
aI58
aI35
aI103
aI62
aI20
aI12
aI37
aI14
aI38
aI9
aI8
aI55
aI21
aI25
aI9
aI30
aI19
aI10
aI26
aI0
aI0
aI0
aI0
aI0
aI0
aI0
aI0
aI0
asS'PursueBehavior'
p10
(lp11
I9
aI26
aI35
aI34
aI26
aI25
aI14
aI30
aI2
aI0
aI1
aI1
aI0
aI0
aI20
aI0
aI14
aI3
aI1
aI0
aI3
aI1
aI0
aI2
aI4
aI0
aI6
aI6
aI4
aI0
aI3
aI3
aI1
aI3
aI0
aI1
aI37
aI0
aI1
aI0
aI46
aI1
aI2
aI1
aI0
aI9
aI26
aI40
aI1
aI51
aI2
aI2
aI1
aI2
aI9
aI1
aI2
aI1
aI0
aI0
aI0
aI2
aI1
aI0
aI0
aI4
aI0
aI4
aI30
aI0
aI1
aI2
aI2
aI2
aI0
aI15
aI0
aI4
aI0
aI3
aI1
aI4
aI48
aI8
aI0
aI2
aI1
aI44
aI15
aI31
aI28
aI30
aI2
aI27
aI0
aI47
aI0
aI0
aI0
aI0
aI0
aI0
aI35
aI7
aI0
aI32
aI7
aI0
aI0
aI0
aI0
aI0
aI0
aI0
aI0
asS'SeekBehavior'
p12
(lp13
I8
aI24
aI28
aI20
aI51
aI7
aI23
aI49
aI30
aI24
aI12
aI2
aI0
aI0
aI49
aI2
aI19
aI41
aI36
aI0
aI3
aI9
aI67
aI49
aI43
aI38
aI113
aI10
aI23
aI0
aI2
aI0
aI0
aI4
aI2
aI1
aI3
aI0
aI1
aI2
aI4
aI0
aI0
aI38
aI0
aI48
aI51
aI40
aI0
aI28
aI1
aI0
aI1
aI0
aI18
aI0
aI1
aI0
aI2
aI8
aI0
aI2
aI0
aI0
aI0
aI1
aI1
aI60
aI17
aI2
aI4
aI1
aI38
aI1
aI2
aI26
aI4
aI69
aI0
aI0
aI2
aI2
aI26
aI4
aI1
aI2
aI0
aI14
aI11
aI1
aI39
aI1
aI1
aI2
aI0
aI1
aI0
aI0
aI3
aI0
aI0
aI0
aI0
aI0
aI0
aI77
aI113
aI15
aI12
aI132
aI54
aI45
aI36
aI80
aI85
assI2
(dp14
S'FleeBehavior'
p15
(lp16
I11
aI38
aI6
aI0
aI35
aI28
aI46
aI58
aI34
aI2
aI1
aI0
aI0
aI0
aI38
aI0
aI15
aI37
aI6
aI2
aI4
aI2
aI46
aI7
aI1
aI3
aI73
aI2
aI63
aI0
aI2
aI8
aI0
aI11
aI0
aI1
aI3
aI0
aI0
aI0
aI19
aI0
aI1
aI14
aI0
aI28
aI49
aI61
aI1
aI48
aI2
aI2
aI1
aI0
aI4
aI2
aI0
aI0
aI0
aI24
aI0
aI0
aI0
aI0
aI0
aI0
aI0
aI45
aI37
aI1
aI2
aI1
aI26
aI2
aI1
aI22
aI15
aI85
aI2
aI2
aI1
aI2
aI66
aI1
aI0
aI1
aI0
aI5
aI11
aI24
aI59
aI0
aI0
aI10
aI1
aI12
aI0
aI0
aI0
aI2
aI0
aI0
aI4
aI0
aI0
aI3
aI7
aI0
aI0
aI0
aI0
aI0
aI0
aI0
aI0
asS'PursueBehavior'
p17
(lp18
I8
aI58
aI119
aI70
aI65
aI6
aI13
aI65
aI21
aI21
aI13
aI19
aI20
aI20
aI83
aI24
aI38
aI65
aI30
aI9
aI23
aI31
aI23
aI38
aI14
aI3
aI48
aI34
aI63
aI8
aI49
aI3
aI27
aI58
aI20
aI16
aI64
aI17
aI10
aI44
aI88
aI17
aI3
aI26
aI9
aI35
aI58
aI38
aI0
aI14
aI3
aI11
aI10
aI0
aI22
aI4
aI7
aI8
aI9
aI14
aI8
aI23
aI18
aI12
aI13
aI25
aI18
aI64
aI34
aI55
aI51
aI24
aI28
aI40
aI16
aI52
aI32
aI38
aI17
aI26
aI15
aI45
aI54
aI36
aI8
aI27
aI13
aI41
aI37
aI57
aI53
aI35
aI15
aI17
aI8
aI46
aI9
aI8
aI54
aI18
aI25
aI9
aI58
aI22
aI10
aI72
aI22
aI5
aI8
aI47
aI9
aI6
aI1
aI7
aI9
asS'SeekBehavior'
p19
(lp20
I10
aI36
aI4
aI9
aI32
aI12
aI52
aI3
aI0
aI1
aI0
aI1
aI1
aI1
aI22
aI1
aI3
aI4
aI15
aI10
aI27
aI21
aI53
aI10
aI33
aI33
aI6
aI9
aI5
aI1
aI0
aI0
aI4
aI2
aI1
aI1
aI1
aI2
aI0
aI1
aI9
aI5
aI6
aI28
aI0
aI32
aI23
aI22
aI23
aI70
aI8
aI16
aI11
aI16
aI36
aI21
aI14
aI1
aI1
aI2
aI1
aI0
aI0
aI0
aI0
aI2
aI2
aI26
aI15
aI3
aI2
aI0
aI14
aI0
aI0
aI11
aI1
aI3
aI0
aI2
aI1
aI0
aI6
aI29
aI1
aI2
aI0
aI70
aI12
aI54
aI17
aI16
aI0
aI39
aI5
aI28
aI0
aI0
aI4
aI1
aI0
aI0
aI3
aI4
aI0
aI60
aI91
aI10
aI4
aI85
aI45
aI39
aI35
aI73
aI76
assI3
(dp21
S'FleeBehavior'
p22
(lp23
I9
aI14
aI10
aI10
aI126
aI21
aI16
aI3
aI0
aI0
aI1
aI2
aI1
aI2
aI5
aI0
aI15
aI6
aI9
aI1
aI10
aI2
aI31
aI28
aI3
aI2
aI5
aI17
aI58
aI1
aI2
aI0
aI2
aI1
aI1
aI0
aI6
aI0
aI0
aI4
aI8
aI1
aI0
aI3
aI1
aI8
aI25
aI51
aI0
aI18
aI4
aI1
aI4
aI11
aI61
aI22
aI0
aI1
aI5
aI13
aI0
aI1
aI0
aI0
aI1
aI1
aI1
aI25
aI15
aI2
aI1
aI2
aI1
aI3
aI2
aI34
aI1
aI3
aI0
aI0
aI3
aI1
aI4
aI30
aI0
aI0
aI0
aI34
aI6
aI6
aI5
aI37
aI2
aI25
aI2
aI14
aI1
aI0
aI2
aI0
aI0
aI0
aI1
aI0
aI0
aI0
aI3
aI0
aI0
aI0
aI0
aI0
aI0
aI0
aI0
asS'PursueBehavior'
p24
(lp25
I13
aI55
aI101
aI57
aI4
aI23
aI66
aI54
aI12
aI0
aI0
aI0
aI0
aI1
aI21
aI2
aI2
aI47
aI41
aI20
aI21
aI19
aI14
aI27
aI45
aI36
aI116
aI28
aI55
aI8
aI29
aI0
aI4
aI2
aI2
aI2
aI21
aI0
aI0
aI2
aI52
aI0
aI1
aI39
aI0
aI51
aI31
aI36
aI1
aI21
aI9
aI26
aI2
aI0
aI1
aI2
aI1
aI0
aI0
aI5
aI0
aI1
aI0
aI1
aI0
aI0
aI0
aI20
aI20
aI1
aI4
aI0
aI39
aI1
aI0
aI30
aI1
aI70
aI2
aI0
aI0
aI2
aI68
aI7
aI2
aI0
aI0
aI26
aI4
aI64
aI50
aI1
aI1
aI18
aI0
aI38
aI0
aI1
aI1
aI0
aI0
aI0
aI15
aI4
aI0
aI37
aI9
aI0
aI0
aI4
aI0
aI0
aI0
aI0
aI0
asS'SeekBehavior'
p26
(lp27
I7
aI63
aI18
aI12
aI2
aI2
aI29
aI69
aI43
aI24
aI13
aI18
aI20
aI18
aI117
aI23
aI39
aI53
aI1
aI0
aI23
aI33
aI77
aI0
aI0
aI1
aI6
aI0
aI18
aI0
aI20
aI11
aI25
aI68
aI18
aI16
aI41
aI19
aI10
aI39
aI56
aI21
aI9
aI26
aI8
aI36
aI74
aI34
aI23
aI93
aI0
aI2
aI16
aI5
aI0
aI3
aI20
aI8
aI5
aI22
aI9
aI21
aI18
aI11
aI12
aI26
aI19
aI90
aI51
aI56
aI50
aI23
aI28
aI38
aI15
aI21
aI46
aI53
aI17
aI30
aI14
aI44
aI54
aI29
aI7
aI30
aI13
aI56
aI50
aI65
aI74
aI13
aI12
aI23
aI12
aI34
aI8
aI7
aI55
aI21
aI25
aI9
aI49
aI22
aI10
aI98
aI108
aI15
aI12
aI128
aI54
aI45
aI36
aI80
aI85
asss.