(dp0
S'learn_scores'
p1
(lp2
F-269.0
aF-232.0
aF-326.0
aF-359.0
aF-368.0
aF-405.0
aF-411.0
aF1064.0
aF-343.0
aF-337.0
aF-371.0
aF-383.0
aF-377.0
aF-378.0
aF50.0
aF-386.0
aF-396.0
aF-339.0
aF-394.0
aF-426.0
aF-343.0
aF-294.0
aF-186.0
aF-290.0
aF-444.0
aF-353.0
aF-411.0
aF-397.0
aF-401.0
aF-83.0
aF-284.0
aF-449.0
aF-115.0
aF-247.0
aF-359.0
aF33.0
aF-290.0
aF-342.0
aF-357.0
aF-247.0
aF-187.0
aF-434.0
aF-454.0
aF-367.0
aF-413.0
aF-390.0
aF-185.0
aF-439.0
aF-438.0
aF-272.0
aF-371.0
aF-314.0
aF-444.0
aF-428.0
aF-252.0
aF-271.0
aF-441.0
aF-387.0
aF-381.0
aF-255.0
aF-373.0
aF-353.0
aF-415.0
aF-410.0
aF286.0
aF-450.0
aF-411.0
aF-445.0
aF-410.0
aF-262.0
aF-422.0
aF-342.0
aF-366.0
aF-445.0
aF-290.0
aF-368.0
aF-395.0
aF-349.0
aF-398.0
aF-331.0
aF-371.0
aF122.0
aF-377.0
aF-407.0
aF-293.0
aF-328.0
aF-414.0
aF-190.0
aF-410.0
aF789.0
aF-418.0
aF-339.0
aF-396.0
aF-429.0
aF-422.0
aF-341.0
aF-384.0
aF-361.0
aF-428.0
aF38.0
asS'test_scores'
p3
(lp4
F-223.0
aF-244.0
aF-280.0
aF-352.0
aF-356.0
aF-337.0
aF-288.0
aF-406.0
aF-378.0
aF-451.0
aF-282.0
aF181.0
aF-348.0
aF136.0
aF-357.0
asS'behavior_count'
p5
(dp6
I1
(dp7
S'FleeBehavior'
p8
(lp9
I26
aI7
aI1
aI1
aI0
aI1
aI2
aI44
aI1
aI0
aI3
aI2
aI1
aI0
aI25
aI1
aI0
aI3
aI2
aI1
aI2
aI2
aI0
aI1
aI0
aI0
aI0
aI0
aI0
aI4
aI4
aI2
aI15
aI27
aI21
aI31
aI2
aI2
aI1
aI1
aI29
aI1
aI0
aI1
aI0
aI2
aI3
aI1
aI0
aI2
aI2
aI2
aI0
aI1
aI1
aI36
aI0
aI0
aI0
aI0
aI0
aI0
aI2
aI0
aI21
aI0
aI1
aI1
aI0
aI35
aI3
aI3
aI3
aI1
aI1
aI3
aI0
aI1
aI0
aI1
aI0
aI14
aI0
aI3
aI0
aI2
aI1
aI5
aI0
aI44
aI2
aI3
aI0
aI4
aI0
aI0
aI2
aI0
aI0
aI14
aI0
aI0
aI0
aI0
aI0
aI0
aI0
aI0
aI0
aI0
aI0
aI0
aI0
aI0
aI0
asS'PursueBehavior'
p10
(lp11
I12
aI45
aI0
aI2
aI1
aI2
aI1
aI22
aI3
aI18
aI6
aI1
aI0
aI0
aI13
aI0
aI0
aI2
aI2
aI2
aI2
aI2
aI5
aI1
aI2
aI1
aI0
aI0
aI0
aI2
aI0
aI0
aI2
aI2
aI7
aI55
aI25
aI10
aI0
aI14
aI2
aI1
aI1
aI2
aI0
aI0
aI1
aI2
aI0
aI1
aI0
aI0
aI0
aI0
aI1
aI1
aI0
aI0
aI2
aI5
aI1
aI0
aI0
aI0
aI2
aI1
aI1
aI0
aI1
aI5
aI0
aI0
aI2
aI0
aI2
aI0
aI2
aI1
aI2
aI0
aI0
aI2
aI0
aI0
aI2
aI2
aI0
aI1
aI2
aI6
aI1
aI3
aI1
aI1
aI2
aI1
aI1
aI1
aI1
aI1
aI0
aI0
aI0
aI0
aI0
aI0
aI0
aI0
aI0
aI0
aI0
aI0
aI0
aI0
aI0
asS'SeekBehavior'
p12
(lp13
I21
aI10
aI36
aI37
aI28
aI13
aI9
aI70
aI19
aI10
aI63
aI10
aI16
aI18
aI152
aI26
aI17
aI45
aI50
aI43
aI50
aI40
aI62
aI48
aI32
aI33
aI11
aI18
aI12
aI127
aI40
aI38
aI79
aI29
aI2
aI11
aI14
aI10
aI16
aI42
aI27
aI13
aI23
aI15
aI14
aI19
aI62
aI17
aI9
aI60
aI30
aI32
aI15
aI7
aI51
aI34
aI11
aI18
aI39
aI51
aI23
aI24
aI24
aI11
aI61
aI19
aI19
aI15
aI9
aI42
aI20
aI40
aI31
aI35
aI57
aI35
aI14
aI18
aI17
aI21
aI31
aI73
aI17
aI14
aI22
aI44
aI13
aI74
aI28
aI141
aI26
aI63
aI25
aI35
aI11
aI20
aI42
aI20
aI27
aI47
aI74
aI34
aI51
aI42
aI17
aI47
aI99
aI17
aI19
aI22
aI42
aI69
aI18
aI64
aI48
assI2
(dp14
S'FleeBehavior'
p15
(lp16
I11
aI51
aI3
aI3
aI0
aI2
aI0
aI20
aI21
aI24
aI60
aI2
aI0
aI0
aI26
aI1
aI0
aI2
aI2
aI3
aI1
aI5
aI2
aI9
aI32
aI29
aI4
aI17
aI12
aI88
aI34
aI31
aI53
aI29
aI1
aI1
aI0
aI0
aI2
aI2
aI1
aI1
aI4
aI1
aI2
aI1
aI0
aI1
aI0
aI3
aI0
aI2
aI1
aI1
aI2
aI3
aI0
aI2
aI1
aI1
aI0
aI1
aI0
aI1
aI2
aI1
aI1
aI0
aI0
aI1
aI0
aI0
aI5
aI1
aI1
aI0
aI2
aI1
aI1
aI0
aI2
aI4
aI0
aI1
aI1
aI2
aI1
aI1
aI2
aI23
aI9
aI0
aI0
aI0
aI1
aI0
aI2
aI0
aI0
aI12
aI4
aI0
aI0
aI0
aI0
aI0
aI0
aI0
aI0
aI0
aI0
aI0
aI0
aI26
aI0
asS'PursueBehavior'
p17
(lp18
I31
aI2
aI1
aI0
aI2
aI0
aI0
aI25
aI0
aI1
aI1
aI0
aI1
aI0
aI24
aI1
aI1
aI2
aI3
aI2
aI2
aI2
aI0
aI2
aI1
aI4
aI6
aI1
aI0
aI37
aI6
aI9
aI39
aI23
aI26
aI88
aI35
aI12
aI1
aI1
aI26
aI0
aI1
aI1
aI0
aI1
aI17
aI17
aI7
aI48
aI28
aI2
aI0
aI1
aI1
aI38
aI0
aI0
aI1
aI2
aI0
aI0
aI2
aI0
aI10
aI1
aI3
aI0
aI0
aI39
aI1
aI0
aI1
aI1
aI2
aI1
aI1
aI0
aI0
aI0
aI1
aI18
aI0
aI1
aI2
aI3
aI1
aI18
aI15
aI147
aI10
aI7
aI0
aI1
aI1
aI2
aI9
aI14
aI24
aI34
aI53
aI3
aI21
aI35
aI4
aI35
aI93
aI10
aI10
aI16
aI21
aI63
aI7
aI6
aI33
asS'SeekBehavior'
p19
(lp20
I17
aI9
aI32
aI37
aI26
aI14
aI11
aI91
aI2
aI3
aI11
aI11
aI16
aI18
aI140
aI24
aI16
aI46
aI49
aI41
aI51
aI37
aI65
aI39
aI1
aI1
aI1
aI0
aI0
aI8
aI4
aI0
aI4
aI5
aI3
aI8
aI6
aI10
aI14
aI54
aI31
aI14
aI19
aI16
aI12
aI19
aI49
aI2
aI2
aI12
aI4
aI30
aI14
aI6
aI50
aI30
aI11
aI15
aI39
aI53
aI23
aI22
aI24
aI10
aI72
aI18
aI17
aI16
aI10
aI42
aI22
aI42
aI30
aI34
aI57
aI37
aI13
aI19
aI17
aI22
aI28
aI67
aI17
aI15
aI21
aI43
aI12
aI61
aI13
aI21
aI10
aI62
aI26
aI39
aI11
aI19
aI33
aI7
aI4
aI16
aI17
aI31
aI30
aI7
aI13
aI12
aI6
aI7
aI9
aI6
aI21
aI6
aI11
aI32
aI15
assI3
(dp21
S'FleeBehavior'
p22
(lp23
I8
aI8
aI13
aI38
aI26
aI12
aI10
aI87
aI22
aI27
aI68
aI13
aI17
aI16
aI165
aI26
aI14
aI48
aI52
aI44
aI51
aI36
aI64
aI45
aI1
aI4
aI0
aI2
aI4
aI62
aI43
aI36
aI60
aI47
aI28
aI54
aI35
aI22
aI17
aI55
aI46
aI14
aI24
aI17
aI12
aI20
aI64
aI19
aI9
aI56
aI31
aI32
aI13
aI7
aI46
aI66
aI10
aI16
aI40
aI53
aI22
aI23
aI25
aI8
aI78
aI20
aI20
aI15
aI9
aI59
aI22
aI41
aI32
aI33
aI56
aI33
aI16
aI20
aI16
aI16
aI29
aI69
aI17
aI17
aI21
aI43
aI13
aI70
aI30
aI119
aI24
aI66
aI25
aI38
aI12
aI21
aI38
aI20
aI26
aI29
aI39
aI34
aI50
aI42
aI16
aI47
aI59
aI17
aI19
aI22
aI42
aI31
aI18
aI61
aI48
asS'PursueBehavior'
p24
(lp25
I19
aI54
aI22
aI2
aI1
aI1
aI1
aI11
aI1
aI0
aI2
aI0
aI0
aI0
aI7
aI0
aI2
aI1
aI1
aI2
aI3
aI4
aI0
aI4
aI32
aI29
aI10
aI16
aI7
aI65
aI0
aI2
aI32
aI9
aI1
aI5
aI3
aI0
aI0
aI1
aI4
aI1
aI0
aI0
aI1
aI0
aI1
aI0
aI0
aI3
aI0
aI0
aI0
aI0
aI4
aI3
aI0
aI0
aI1
aI1
aI0
aI0
aI0
aI1
aI4
aI0
aI1
aI0
aI0
aI5
aI0
aI1
aI3
aI2
aI1
aI4
aI0
aI0
aI2
aI2
aI1
aI6
aI0
aI0
aI2
aI2
aI1
aI4
aI0
aI22
aI3
aI0
aI1
aI2
aI0
aI0
aI2
aI1
aI0
aI3
aI0
aI0
aI0
aI0
aI0
aI0
aI0
aI0
aI0
aI0
aI0
aI0
aI0
aI0
aI0
asS'SeekBehavior'
p26
(lp27
I32
aI0
aI1
aI0
aI1
aI2
aI0
aI38
aI0
aI1
aI1
aI0
aI0
aI2
aI18
aI0
aI1
aI1
aI1
aI0
aI0
aI4
aI2
aI1
aI1
aI1
aI1
aI0
aI0
aI6
aI1
aI2
aI4
aI1
aI0
aI38
aI2
aI0
aI0
aI1
aI7
aI0
aI0
aI0
aI1
aI1
aI1
aI1
aI0
aI4
aI0
aI2
aI1
aI1
aI2
aI2
aI1
aI1
aI0
aI1
aI1
aI0
aI0
aI1
aI2
aI0
aI0
aI0
aI1
aI18
aI1
aI0
aI1
aI1
aI3
aI1
aI0
aI0
aI0
aI3
aI1
aI14
aI0
aI0
aI1
aI3
aI0
aI6
aI0
aI50
aI1
aI3
aI0
aI0
aI1
aI0
aI4
aI0
aI2
aI30
aI34
aI0
aI0
aI0
aI0
aI0
aI39
aI0
aI0
aI0
aI0
aI38
aI0
aI3
aI0
assI4
(dp28
S'FleeBehavior'
p29
(lp30
I12
aI11
aI6
aI1
aI1
aI0
aI0
aI44
aI3
aI3
aI1
aI0
aI2
aI2
aI25
aI2
aI1
aI1
aI4
aI3
aI0
aI0
aI1
aI0
aI1
aI2
aI0
aI0
aI0
aI6
aI0
aI3
aI11
aI1
aI2
aI1
aI2
aI1
aI0
aI2
aI3
aI2
aI3
aI0
aI1
aI1
aI2
aI2
aI1
aI1
aI2
aI2
aI0
aI0
aI1
aI1
aI1
aI1
aI3
aI1
aI1
aI1
aI2
aI1
aI6
aI0
aI2
aI2
aI1
aI23
aI2
aI6
aI6
aI3
aI25
aI6
aI2
aI2
aI0
aI0
aI0
aI26
aI1
aI2
aI0
aI1
aI0
aI8
aI3
aI93
aI3
aI3
aI3
aI25
aI1
aI2
aI12
aI13
aI12
aI44
aI50
aI0
aI40
aI16
aI7
aI6
aI60
aI2
aI6
aI3
aI37
aI30
aI1
aI26
aI14
asS'PursueBehavior'
p31
(lp32
I20
aI21
aI29
aI37
aI26
aI15
aI10
aI67
aI19
aI25
aI65
aI13
aI15
aI16
aI154
aI24
aI13
aI47
aI49
aI43
aI52
aI41
aI20
aI39
aI7
aI12
aI7
aI2
aI1
aI60
aI17
aI3
aI36
aI26
aI3
aI58
aI31
aI21
aI17
aI53
aI53
aI13
aI20
aI17
aI12
aI20
aI62
aI17
aI6
aI59
aI28
aI31
aI13
aI6
aI50
aI68
aI10
aI16
aI37
aI52
aI22
aI21
aI22
aI9
aI77
aI20
aI18
aI13
aI8
aI57
aI19
aI35
aI28
aI30
aI34
aI30
aI14
aI18
aI16
aI21
aI28
aI61
aI16
aI15
aI23
aI46
aI12
aI70
aI27
aI92
aI18
aI48
aI22
aI14
aI12
aI18
aI29
aI7
aI15
aI18
aI22
aI34
aI10
aI26
aI9
aI41
aI37
aI14
aI13
aI19
aI5
aI34
aI17
aI28
aI34
asS'SeekBehavior'
p33
(lp34
I27
aI30
aI1
aI2
aI1
aI0
aI1
aI25
aI1
aI0
aI5
aI0
aI0
aI0
aI11
aI0
aI2
aI2
aI1
aI0
aI1
aI3
aI45
aI11
aI26
aI19
aI4
aI15
aI10
aI67
aI27
aI33
aI48
aI30
aI24
aI38
aI7
aI0
aI0
aI2
aI1
aI0
aI1
aI0
aI1
aI0
aI1
aI1
aI1
aI3
aI1
aI1
aI1
aI2
aI1
aI2
aI0
aI0
aI1
aI2
aI0
aI1
aI1
aI0
aI1
aI0
aI1
aI0
aI1
aI2
aI2
aI1
aI2
aI2
aI1
aI2
aI0
aI0
aI2
aI0
aI3
aI2
aI0
aI0
aI1
aI1
aI2
aI2
aI0
aI6
aI7
aI18
aI1
aI0
aI0
aI1
aI3
aI1
aI1
aI0
aI1
aI0
aI0
aI0
aI0
aI0
aI1
aI0
aI0
aI0
aI0
aI5
aI0
aI10
aI0
asss.