(dp0
S'learn_scores'
p1
(lp2
F58.0
aF-428.0
aF-372.0
aF-349.0
aF243.0
aF-356.0
aF-8.0
aF-355.0
aF-267.0
aF-395.0
aF-401.0
aF-224.0
aF-401.0
aF-257.0
aF-374.0
aF-351.0
aF-422.0
aF-419.0
aF-282.0
aF-253.0
aF-389.0
aF-330.0
aF75.0
aF-445.0
aF-445.0
aF-383.0
aF-29.0
aF-411.0
aF-327.0
aF-362.0
aF37.0
aF-373.0
aF-380.0
aF-16.0
aF-50.0
aF-405.0
aF-367.0
aF-454.0
aF-413.0
aF-387.0
aF5.0
aF-284.0
aF-429.0
aF-413.0
aF-395.0
aF-293.0
aF-423.0
aF-377.0
aF-428.0
aF-487.0
aF-380.0
aF-421.0
aF-432.0
aF-363.0
aF-18.0
aF-246.0
aF-434.0
aF-325.0
aF-254.0
aF-367.0
aF-337.0
aF-285.0
aF-459.0
aF-400.0
aF115.0
aF-387.0
aF-410.0
aF-392.0
aF-396.0
aF-367.0
aF-429.0
aF-46.0
aF-427.0
aF-121.0
aF-417.0
aF-383.0
aF-298.0
aF-369.0
aF-249.0
aF-303.0
aF-926.0
aF-183.0
aF-391.0
aF-382.0
aF-437.0
aF-374.0
aF-456.0
aF-419.0
aF-387.0
aF-88.0
aF-218.0
aF-344.0
aF-395.0
aF-337.0
aF-372.0
aF-354.0
aF-403.0
aF-318.0
aF-25.0
aF-419.0
asS'test_scores'
p3
(lp4
F-370.0
aF406.0
aF-338.0
aF-57.0
aF-379.0
aF-334.0
aF-411.0
aF-430.0
aF-267.0
aF-417.0
aF-423.0
aF-415.0
aF-383.0
aF-371.0
aF-220.0
asS'behavior_count'
p5
(dp6
I1
(dp7
S'FleeBehavior'
p8
(lp9
I16
aI0
aI1
aI1
aI88
aI0
aI23
aI34
aI40
aI15
aI10
aI72
aI0
aI0
aI1
aI3
aI0
aI0
aI3
aI3
aI2
aI1
aI47
aI14
aI14
aI23
aI33
aI3
aI25
aI3
aI10
aI10
aI2
aI9
aI26
aI13
aI0
aI7
aI0
aI1
aI24
aI12
aI8
aI5
aI0
aI10
aI0
aI2
aI0
aI2
aI2
aI2
aI0
aI0
aI29
aI4
aI1
aI0
aI9
aI1
aI0
aI13
aI7
aI0
aI27
aI0
aI0
aI0
aI0
aI0
aI1
aI28
aI0
aI1
aI1
aI0
aI7
aI1
aI42
aI3
aI1
aI1
aI0
aI1
aI2
aI3
aI0
aI0
aI0
aI38
aI2
aI1
aI3
aI1
aI0
aI0
aI0
aI0
aI4
aI0
aI0
aI15
aI0
aI7
aI0
aI0
aI0
aI0
aI0
aI0
aI0
aI0
aI0
aI0
aI0
asS'PursueBehavior'
p10
(lp11
I15
aI0
aI2
aI0
aI66
aI1
aI21
aI1
aI2
aI0
aI0
aI3
aI2
aI2
aI1
aI3
aI1
aI0
aI17
aI0
aI0
aI0
aI41
aI1
aI0
aI1
aI52
aI4
aI38
aI2
aI40
aI0
aI2
aI13
aI37
aI1
aI1
aI2
aI0
aI1
aI7
aI3
aI0
aI1
aI1
aI2
aI1
aI0
aI0
aI1
aI2
aI1
aI1
aI1
aI4
aI1
aI1
aI2
aI4
aI1
aI0
aI14
aI5
aI0
aI11
aI0
aI0
aI0
aI1
aI0
aI0
aI8
aI0
aI2
aI1
aI0
aI1
aI1
aI4
aI10
aI2
aI0
aI0
aI1
aI1
aI2
aI0
aI0
aI2
aI3
aI3
aI1
aI1
aI2
aI1
aI0
aI0
aI3
aI37
aI0
aI0
aI23
aI0
aI14
aI0
aI0
aI0
aI0
aI0
aI0
aI0
aI0
aI0
aI0
aI0
asS'SeekBehavior'
p12
(lp13
I21
aI9
aI30
aI18
aI103
aI26
aI85
aI0
aI5
aI1
aI1
aI30
aI9
aI55
aI12
aI36
aI11
aI20
aI62
aI61
aI28
aI20
aI117
aI0
aI1
aI0
aI5
aI14
aI15
aI28
aI53
aI43
aI27
aI74
aI7
aI2
aI16
aI15
aI13
aI15
aI55
aI29
aI2
aI7
aI25
aI42
aI12
aI25
aI9
aI74
aI46
aI29
aI41
aI32
aI85
aI31
aI22
aI53
aI91
aI36
aI47
aI59
aI38
aI21
aI27
aI17
aI11
aI13
aI15
aI18
aI9
aI41
aI18
aI108
aI25
aI13
aI90
aI27
aI53
aI30
aI23
aI53
aI22
aI21
aI25
aI39
aI17
aI10
aI15
aI27
aI53
aI23
aI22
aI65
aI22
aI24
aI23
aI45
aI95
aI9
aI40
aI67
aI19
aI57
aI20
aI34
aI11
aI20
aI58
aI27
aI13
aI16
aI24
aI72
aI101
assI2
(dp14
S'FleeBehavior'
p15
(lp16
I13
aI0
aI1
aI1
aI42
aI0
aI0
aI0
aI1
aI0
aI1
aI4
aI0
aI0
aI0
aI2
aI0
aI0
aI5
aI1
aI2
aI1
aI20
aI12
aI11
aI7
aI10
aI0
aI3
aI1
aI35
aI52
aI23
aI28
aI26
aI12
aI16
aI21
aI6
aI4
aI26
aI2
aI0
aI0
aI0
aI3
aI1
aI0
aI0
aI2
aI2
aI25
aI31
aI31
aI55
aI17
aI1
aI12
aI46
aI5
aI30
aI19
aI25
aI13
aI15
aI0
aI0
aI0
aI1
aI0
aI0
aI14
aI0
aI15
aI6
aI0
aI8
aI21
aI44
aI6
aI1
aI2
aI1
aI1
aI1
aI2
aI7
aI1
aI2
aI7
aI12
aI13
aI7
aI17
aI0
aI0
aI0
aI1
aI37
aI0
aI0
aI3
aI0
aI0
aI0
aI0
aI0
aI0
aI0
aI0
aI0
aI0
aI0
aI0
aI0
asS'PursueBehavior'
p17
(lp18
I20
aI9
aI32
aI18
aI205
aI25
aI37
aI34
aI46
aI16
aI10
aI98
aI11
aI54
aI4
aI7
aI0
aI0
aI4
aI22
aI4
aI13
aI118
aI3
aI4
aI16
aI75
aI10
aI59
aI30
aI53
aI1
aI7
aI54
aI38
aI1
aI1
aI1
aI6
aI12
aI56
aI40
aI9
aI13
aI25
aI49
aI12
aI26
aI8
aI74
aI40
aI6
aI10
aI1
aI50
aI10
aI22
aI29
aI44
aI12
aI6
aI52
aI4
aI6
aI49
aI17
aI9
aI13
aI15
aI17
aI9
aI60
aI16
aI92
aI21
aI12
aI47
aI8
aI37
aI15
aI21
aI52
aI19
aI21
aI26
aI41
aI10
aI9
aI13
aI56
aI42
aI11
aI18
aI47
aI20
aI20
aI21
aI40
aI75
aI8
aI28
aI56
aI9
aI53
aI20
aI15
aI10
aI17
aI21
aI15
aI8
aI14
aI16
aI42
aI39
asS'SeekBehavior'
p19
(lp20
I19
aI0
aI0
aI0
aI10
aI2
aI92
aI1
aI0
aI0
aI0
aI3
aI0
aI3
aI10
aI32
aI12
aI19
aI73
aI40
aI24
aI7
aI67
aI0
aI0
aI1
aI4
aI11
aI16
aI2
aI15
aI0
aI1
aI14
aI6
aI2
aI0
aI2
aI1
aI1
aI4
aI2
aI0
aI0
aI0
aI2
aI0
aI1
aI1
aI1
aI8
aI1
aI1
aI1
aI13
aI9
aI1
aI14
aI14
aI21
aI11
aI14
aI21
aI2
aI1
aI0
aI2
aI0
aI0
aI1
aI0
aI2
aI1
aI4
aI0
aI1
aI43
aI0
aI18
aI22
aI4
aI0
aI2
aI1
aI1
aI1
aI0
aI0
aI2
aI5
aI4
aI0
aI0
aI4
aI2
aI4
aI2
aI7
aI24
aI1
aI12
aI46
aI10
aI25
aI0
aI19
aI1
aI3
aI37
aI12
aI5
aI2
aI8
aI30
aI62
assI3
(dp21
S'FleeBehavior'
p22
(lp23
I23
aI6
aI32
aI17
aI129
aI2
aI43
aI20
aI27
aI9
aI7
aI54
aI9
aI45
aI9
aI27
aI11
aI16
aI58
aI32
aI25
aI17
aI80
aI5
aI8
aI19
aI40
aI9
aI36
aI18
aI29
aI44
aI27
aI38
aI67
aI12
aI15
aI19
aI11
aI12
aI42
aI38
aI6
aI6
aI14
aI43
aI7
aI18
aI7
aI33
aI31
aI27
aI26
aI29
aI75
aI35
aI5
aI19
aI59
aI29
aI22
aI54
aI10
aI14
aI24
aI6
aI10
aI9
aI9
aI16
aI8
aI16
aI7
aI74
aI20
aI12
aI38
aI12
aI61
aI17
aI8
aI39
aI16
aI17
aI17
aI33
aI10
aI9
aI11
aI61
aI40
aI10
aI19
aI34
aI19
aI16
aI7
aI37
aI48
aI9
aI15
aI44
aI8
aI15
aI11
aI13
aI10
aI6
aI22
aI3
aI8
aI8
aI10
aI25
aI55
asS'PursueBehavior'
p24
(lp25
I14
aI3
aI1
aI2
aI121
aI24
aI77
aI2
aI4
aI1
aI0
aI3
aI0
aI0
aI1
aI3
aI1
aI0
aI10
aI26
aI0
aI2
aI58
aI1
aI0
aI0
aI37
aI0
aI37
aI1
aI23
aI2
aI0
aI18
aI1
aI1
aI2
aI1
aI0
aI1
aI10
aI3
aI0
aI0
aI0
aI3
aI1
aI1
aI0
aI3
aI1
aI0
aI1
aI1
aI5
aI0
aI1
aI2
aI10
aI0
aI2
aI5
aI29
aI5
aI32
aI10
aI1
aI4
aI0
aI1
aI0
aI35
aI0
aI3
aI2
aI0
aI8
aI3
aI20
aI17
aI2
aI4
aI1
aI0
aI2
aI2
aI1
aI0
aI0
aI2
aI0
aI2
aI1
aI2
aI3
aI1
aI1
aI1
aI32
aI0
aI7
aI39
aI10
aI15
aI7
aI10
aI1
aI3
aI11
aI8
aI2
aI3
aI4
aI6
aI11
asS'SeekBehavior'
p26
(lp27
I15
aI0
aI0
aI0
aI7
aI1
aI9
aI13
aI16
aI6
aI4
aI48
aI2
aI12
aI4
aI11
aI0
aI3
aI14
aI5
aI5
aI1
aI67
aI9
aI7
aI5
aI12
aI12
aI5
aI13
aI51
aI7
aI3
aI40
aI2
aI2
aI0
aI4
aI2
aI4
aI34
aI3
aI3
aI7
aI11
aI8
aI5
aI8
aI2
aI41
aI18
aI5
aI15
aI3
aI38
aI1
aI18
aI34
aI35
aI9
aI23
aI26
aI11
aI1
aI9
aI1
aI0
aI0
aI7
aI1
aI1
aI25
aI10
aI34
aI5
aI1
aI52
aI14
aI18
aI9
aI16
aI11
aI5
aI5
aI9
aI9
aI6
aI1
aI6
aI5
aI18
aI12
aI5
aI32
aI0
aI7
aI15
aI10
aI55
aI0
aI18
aI21
aI1
aI48
aI2
aI11
aI0
aI11
aI24
aI16
aI3
aI4
aI9
aI41
aI35
asss.