(dp0
S'learn_scores'
p1
(lp2
F-213.0
aF1543.0
aF719.0
aF343.0
aF1538.0
aF485.0
aF-186.0
aF1538.0
aF-4.0
aF-285.0
aF1546.0
aF1744.0
aF-239.0
aF563.0
aF104.0
aF-375.0
aF-259.0
aF1546.0
aF1740.0
aF-226.0
aF-268.0
aF-347.0
aF1535.0
aF1546.0
aF-302.0
aF208.0
aF674.0
aF-123.0
aF378.0
aF414.0
aF271.0
aF-356.0
aF384.0
aF-347.0
aF846.0
aF362.0
aF-392.0
aF272.0
aF-383.0
aF-347.0
aF1548.0
aF296.0
aF1546.0
aF-347.0
aF274.0
aF1336.0
aF44.0
aF-293.0
aF-329.0
aF-99.0
aF-365.0
aF1545.0
aF-178.0
aF1541.0
aF-356.0
aF-261.0
aF-176.0
aF532.0
aF-338.0
aF139.0
aF554.0
aF875.0
aF183.0
aF320.0
aF272.0
aF-428.0
aF-356.0
aF-419.0
aF-342.0
aF293.0
aF-365.0
aF155.0
aF1536.0
aF294.0
aF423.0
aF-279.0
aF-126.0
aF288.0
aF-26.0
aF-212.0
aF-428.0
aF1748.0
aF-428.0
aF-329.0
aF728.0
aF-311.0
aF72.0
aF-303.0
aF660.0
aF1334.0
aF1735.0
aF179.0
aF1941.0
aF1537.0
aF-365.0
aF1344.0
aF-8.0
aF-401.0
aF721.0
aF-365.0
asS'test_scores'
p3
(lp4
F-136.0
aF-313.0
aF-98.0
aF-83.0
aF-410.0
aF1739.0
aF-27.0
aF-392.0
aF-221.0
aF-27.0
aF1539.0
aF1339.0
aF-311.0
aF-195.0
aF148.0
asS'behavior_count'
p5
(dp6
I1
(dp7
S'FleeBehavior'
p8
(lp9
I10
aI49
aI49
aI37
aI4
aI21
aI2
aI6
aI1
aI2
aI6
aI102
aI1
aI2
aI2
aI1
aI0
aI4
aI3
aI1
aI0
aI0
aI8
aI45
aI1
aI23
aI29
aI38
aI2
aI16
aI3
aI0
aI3
aI0
aI5
aI5
aI0
aI3
aI0
aI0
aI7
aI2
aI3
aI11
aI41
aI74
aI38
aI22
aI17
aI47
aI12
aI111
aI34
aI105
aI11
aI4
aI23
aI20
aI4
aI4
aI8
aI6
aI16
aI6
aI4
aI0
aI1
aI1
aI2
aI10
aI1
aI13
aI3
aI9
aI73
aI5
aI34
aI20
aI40
aI8
aI1
aI59
aI3
aI5
aI48
aI5
aI37
aI2
aI60
aI76
aI92
aI37
aI33
aI81
aI0
aI5
aI13
aI0
aI62
aI1
aI0
aI0
aI0
aI0
aI0
aI35
aI37
aI0
aI0
aI0
aI41
aI73
aI0
aI0
aI30
asS'PursueBehavior'
p10
(lp11
I12
aI69
aI33
aI17
aI33
aI80
aI33
aI54
aI24
aI23
aI115
aI5
aI4
aI5
aI2
aI0
aI0
aI1
aI2
aI2
aI0
aI0
aI3
aI6
aI0
aI10
aI47
aI4
aI88
aI84
aI46
aI17
aI92
aI18
aI94
aI91
aI13
aI106
aI12
aI18
aI113
aI79
aI118
aI6
aI39
aI55
aI6
aI1
aI1
aI2
aI3
aI8
aI5
aI18
aI4
aI27
aI11
aI39
aI14
aI28
aI62
aI56
aI32
aI47
aI34
aI0
aI2
aI4
aI10
aI19
aI3
aI35
aI78
aI34
aI25
aI25
aI12
aI33
aI24
aI24
aI8
aI59
aI4
aI14
aI62
aI16
aI39
aI20
aI49
aI55
aI34
aI48
aI64
aI47
aI5
aI51
aI45
aI11
aI52
aI14
aI47
aI23
aI49
aI54
aI11
aI96
aI29
aI13
aI32
aI58
aI77
aI58
aI22
aI35
aI32
asS'SeekBehavior'
p12
(lp13
I12
aI9
aI39
aI34
aI95
aI4
aI1
aI72
aI9
aI1
aI3
aI19
aI24
aI91
aI52
aI14
aI30
aI119
aI125
aI34
aI28
aI18
aI124
aI73
aI21
aI40
aI40
aI1
aI2
aI6
aI1
aI0
aI1
aI0
aI5
aI3
aI0
aI0
aI1
aI0
aI2
aI4
aI3
aI0
aI6
aI5
aI2
aI0
aI1
aI1
aI0
aI6
aI0
aI6
aI1
aI1
aI3
aI70
aI0
aI29
aI16
aI54
aI50
aI67
aI80
aI9
aI13
aI5
aI11
aI49
aI11
aI18
aI53
aI3
aI0
aI0
aI0
aI20
aI3
aI0
aI0
aI4
aI1
aI0
aI23
aI1
aI2
aI1
aI12
aI5
aI9
aI17
aI32
aI5
aI10
aI70
aI1
aI1
aI5
aI0
aI0
aI0
aI0
aI0
aI0
aI0
aI1
aI0
aI0
aI0
aI13
aI0
aI0
aI0
aI0
assI2
(dp14
S'FleeBehavior'
p15
(lp16
I11
aI58
aI21
aI25
aI59
aI35
aI25
aI11
aI0
aI0
aI3
aI28
aI29
aI89
aI53
aI14
aI29
aI116
aI73
aI10
aI26
aI18
aI112
aI68
aI1
aI1
aI11
aI42
aI48
aI61
aI37
aI16
aI59
aI16
aI57
aI55
aI12
aI43
aI12
aI18
aI64
aI44
aI57
aI17
aI40
aI64
aI11
aI13
aI5
aI24
aI4
aI28
aI12
aI75
aI15
aI31
aI36
aI49
aI17
aI44
aI66
aI85
aI49
aI43
aI47
aI9
aI16
aI10
aI21
aI35
aI14
aI48
aI108
aI35
aI56
aI26
aI41
aI29
aI23
aI28
aI9
aI50
aI5
aI18
aI84
aI20
aI38
aI23
aI51
aI62
aI61
aI41
aI71
aI43
aI6
aI31
aI18
aI9
aI51
aI13
aI40
aI10
aI49
aI51
aI11
aI86
aI19
aI13
aI32
aI36
aI79
aI23
aI22
aI29
aI19
asS'PursueBehavior'
p17
(lp18
I10
aI18
aI66
aI33
aI31
aI19
aI3
aI43
aI31
aI25
aI115
aI9
aI0
aI4
aI2
aI0
aI0
aI5
aI38
aI1
aI0
aI0
aI7
aI8
aI2
aI2
aI25
aI0
aI1
aI5
aI0
aI0
aI2
aI1
aI5
aI2
aI1
aI6
aI1
aI0
aI4
aI3
aI21
aI0
aI8
aI42
aI14
aI1
aI0
aI1
aI0
aI7
aI1
aI12
aI0
aI1
aI1
aI74
aI1
aI15
aI16
aI27
aI41
aI67
aI63
aI0
aI0
aI0
aI0
aI32
aI1
aI2
aI19
aI1
aI7
aI0
aI3
aI20
aI2
aI2
aI0
aI2
aI1
aI1
aI18
aI1
aI35
aI0
aI42
aI60
aI51
aI37
aI49
aI33
aI0
aI7
aI15
aI0
aI22
aI0
aI0
aI0
aI0
aI0
aI0
aI20
aI10
aI0
aI0
aI0
aI7
aI12
aI0
aI0
aI0
asS'SeekBehavior'
p19
(lp20
I13
aI51
aI34
aI30
aI42
aI51
aI8
aI78
aI3
aI1
aI6
aI89
aI0
aI5
aI1
aI1
aI1
aI3
aI19
aI26
aI2
aI0
aI16
aI48
aI19
aI69
aI80
aI1
aI43
aI40
aI13
aI1
aI35
aI1
aI42
aI42
aI0
aI59
aI0
aI0
aI54
aI38
aI46
aI0
aI38
aI28
aI21
aI9
aI14
aI25
aI11
aI90
aI26
aI42
aI1
aI0
aI0
aI5
aI0
aI2
aI4
aI4
aI8
aI10
aI8
aI0
aI0
aI0
aI2
aI11
aI0
aI15
aI7
aI10
aI34
aI4
aI2
aI24
aI42
aI2
aI0
aI70
aI2
aI0
aI30
aI1
aI5
aI0
aI28
aI14
aI23
aI24
aI9
aI57
aI9
aI88
aI26
aI3
aI46
aI2
aI7
aI13
aI0
aI3
aI0
aI25
aI38
aI0
aI0
aI22
aI45
aI96
aI0
aI6
aI43
asss.