(dp0
S'learn_scores'
p1
(lp2
F-338.0
aF-61.0
aF-392.0
aF-374.0
aF-428.0
aF-334.0
aF459.0
aF-349.0
aF1546.0
aF-258.0
aF1746.0
aF-284.0
aF1744.0
aF-302.0
aF151.0
aF134.0
aF-347.0
aF347.0
aF470.0
aF440.0
aF-347.0
aF-383.0
aF1749.0
aF1342.0
aF74.0
aF-357.0
aF-365.0
aF-258.0
aF16.0
aF-347.0
aF1347.0
aF1939.0
aF316.0
aF84.0
aF108.0
aF718.0
aF-311.0
aF2130.0
aF1347.0
aF-277.0
aF-253.0
aF-266.0
aF1737.0
aF412.0
aF1338.0
aF254.0
aF-204.0
aF1744.0
aF-329.0
aF-374.0
aF-356.0
aF328.0
aF228.0
aF-284.0
aF553.0
aF-401.0
aF348.0
aF949.0
aF-392.0
aF1940.0
aF1744.0
aF-159.0
aF-338.0
aF-338.0
aF-347.0
aF-329.0
aF80.0
aF233.0
aF474.0
aF594.0
aF1952.0
aF-329.0
aF323.0
aF-214.0
aF1340.0
aF-365.0
aF1743.0
aF-284.0
aF-315.0
aF1544.0
aF274.0
aF-262.0
aF-374.0
aF51.0
aF464.0
aF867.0
aF630.0
aF-392.0
aF-374.0
aF-140.0
aF-348.0
aF1546.0
aF149.0
aF-293.0
aF64.0
aF145.0
aF0.0
aF671.0
aF194.0
aF914.0
asS'test_scores'
p3
(lp4
F-240.0
aF-356.0
aF-383.0
aF327.0
aF338.0
aF169.0
aF-330.0
aF-213.0
aF-162.0
aF-374.0
aF-347.0
aF315.0
aF1106.0
aF302.0
aF317.0
asS'behavior_count'
p5
(dp6
I1
(dp7
S'FleeBehavior'
p8
(lp9
I6
aI20
aI1
aI1
aI0
aI1
aI7
aI1
aI65
aI5
aI68
aI0
aI3
aI3
aI4
aI34
aI0
aI2
aI31
aI33
aI17
aI12
aI61
aI43
aI1
aI4
aI0
aI0
aI0
aI0
aI8
aI87
aI26
aI68
aI51
aI53
aI1
aI23
aI24
aI1
aI1
aI2
aI3
aI4
aI2
aI28
aI1
aI23
aI0
aI1
aI3
aI90
aI84
aI25
aI52
aI9
aI67
aI41
aI11
aI105
aI97
aI33
aI19
aI13
aI16
aI16
aI74
aI60
aI60
aI70
aI63
aI19
aI70
aI29
aI118
aI15
aI89
aI17
aI23
aI71
aI21
aI16
aI2
aI7
aI22
aI50
aI52
aI6
aI13
aI41
aI17
aI53
aI20
aI22
aI37
aI42
aI39
aI48
aI57
aI38
aI31
aI17
aI13
aI68
aI62
aI19
aI0
aI0
aI1
aI2
aI0
aI17
aI39
aI7
aI10
asS'PursueBehavior'
p10
(lp11
I4
aI9
aI0
aI1
aI0
aI3
aI46
aI0
aI7
aI21
aI32
aI8
aI70
aI20
aI55
aI10
aI1
aI3
aI21
aI17
aI0
aI0
aI34
aI81
aI45
aI13
aI15
aI28
aI59
aI16
aI112
aI6
aI12
aI2
aI2
aI21
aI18
aI64
aI63
aI19
aI32
aI24
aI97
aI32
aI3
aI0
aI1
aI69
aI18
aI14
aI13
aI27
aI12
aI0
aI4
aI1
aI11
aI6
aI1
aI14
aI24
aI2
aI0
aI2
aI0
aI1
aI3
aI1
aI3
aI15
aI9
aI1
aI13
aI5
aI10
aI0
aI35
aI6
aI2
aI52
aI36
aI15
aI11
aI42
aI52
aI33
aI39
aI5
aI1
aI0
aI1
aI66
aI36
aI1
aI9
aI12
aI20
aI51
aI38
aI30
aI0
aI0
aI0
aI65
aI40
aI72
aI21
aI34
aI41
aI12
aI18
aI108
aI63
aI111
aI44
asS'SeekBehavior'
p12
(lp13
I8
aI32
aI11
aI13
aI9
aI21
aI18
aI18
aI52
aI2
aI24
aI16
aI53
aI0
aI1
aI12
aI17
aI48
aI29
aI20
aI0
aI2
aI26
aI4
aI1
aI1
aI0
aI0
aI5
aI1
aI3
aI38
aI47
aI6
aI0
aI8
aI2
aI53
aI36
aI8
aI0
aI0
aI33
aI32
aI127
aI48
aI32
aI34
aI1
aI0
aI0
aI5
aI6
aI0
aI1
aI2
aI4
aI35
aI0
aI11
aI5
aI4
aI0
aI3
aI1
aI2
aI4
aI6
aI13
aI12
aI46
aI0
aI4
aI0
aI2
aI0
aI3
aI1
aI1
aI3
aI29
aI2
aI1
aI1
aI3
aI31
aI10
aI1
aI0
aI0
aI0
aI5
aI5
aI0
aI1
aI1
aI1
aI31
aI1
aI39
aI0
aI0
aI0
aI0
aI0
aI0
aI0
aI0
aI0
aI0
aI0
aI0
aI22
aI0
aI0
assI2
(dp14
S'FleeBehavior'
p15
(lp16
I5
aI13
aI0
aI0
aI1
aI1
aI13
aI1
aI45
aI0
aI51
aI0
aI39
aI10
aI33
aI37
aI1
aI1
aI32
aI4
aI1
aI0
aI9
aI85
aI8
aI0
aI0
aI4
aI17
aI15
aI63
aI66
aI47
aI43
aI26
aI40
aI1
aI24
aI68
aI1
aI0
aI1
aI11
aI4
aI6
aI41
aI24
aI104
aI0
aI1
aI1
aI5
aI3
aI1
aI12
aI10
aI33
aI29
aI11
aI107
aI61
aI34
aI3
aI0
aI2
aI0
aI37
aI38
aI37
aI65
aI51
aI20
aI77
aI24
aI102
aI2
aI79
aI0
aI0
aI65
aI21
aI3
aI4
aI31
aI11
aI34
aI54
aI0
aI1
aI0
aI0
aI38
aI3
aI1
aI27
aI27
aI37
aI51
aI40
aI24
aI0
aI0
aI0
aI1
aI1
aI0
aI0
aI0
aI0
aI0
aI0
aI1
aI31
aI0
aI4
asS'PursueBehavior'
p17
(lp18
I4
aI12
aI1
aI0
aI1
aI0
aI21
aI0
aI25
aI26
aI47
aI0
aI15
aI1
aI1
aI8
aI1
aI1
aI9
aI17
aI0
aI0
aI36
aI7
aI22
aI1
aI0
aI0
aI4
aI0
aI42
aI8
aI6
aI2
aI1
aI17
aI19
aI98
aI6
aI22
aI30
aI0
aI33
aI51
aI57
aI1
aI3
aI4
aI0
aI0
aI1
aI7
aI1
aI2
aI11
aI0
aI15
aI5
aI0
aI16
aI51
aI2
aI2
aI4
aI0
aI0
aI6
aI4
aI1
aI5
aI2
aI0
aI2
aI1
aI4
aI1
aI30
aI10
aI0
aI3
aI19
aI4
aI1
aI5
aI39
aI37
aI13
aI1
aI1
aI2
aI0
aI36
aI37
aI1
aI1
aI2
aI3
aI22
aI7
aI35
aI6
aI4
aI4
aI81
aI73
aI82
aI21
aI34
aI41
aI14
aI18
aI123
aI90
aI115
aI47
asS'SeekBehavior'
p19
(lp20
I9
aI36
aI11
aI15
aI7
aI24
aI37
aI18
aI54
aI2
aI26
aI24
aI72
aI12
aI25
aI11
aI16
aI51
aI39
aI49
aI16
aI14
aI76
aI36
aI17
aI17
aI15
aI24
aI43
aI2
aI18
aI57
aI32
aI31
aI25
aI25
aI1
aI18
aI49
aI5
aI3
aI25
aI89
aI13
aI69
aI34
aI7
aI18
aI19
aI14
aI14
aI110
aI98
aI22
aI34
aI2
aI34
aI47
aI1
aI7
aI14
aI3
aI14
aI14
aI15
aI19
aI38
aI25
aI38
aI26
aI65
aI0
aI8
aI9
aI24
aI12
aI18
aI14
aI26
aI58
aI46
aI26
aI9
aI14
aI26
aI43
aI33
aI11
aI12
aI39
aI18
aI50
aI21
aI21
aI18
aI26
aI20
aI57
aI49
aI48
aI25
aI13
aI9
aI51
aI28
aI9
aI0
aI0
aI1
aI0
aI0
aI1
aI3
aI3
aI3
assI3
(dp21
S'FleeBehavior'
p22
(lp23
I3
aI14
aI0
aI0
aI1
aI0
aI18
aI0
aI44
aI2
aI19
aI23
aI73
aI20
aI18
aI11
aI17
aI40
aI15
aI26
aI1
aI0
aI10
aI102
aI35
aI15
aI2
aI1
aI3
aI0
aI62
aI76
aI39
aI0
aI0
aI9
aI1
aI50
aI100
aI1
aI1
aI0
aI9
aI10
aI57
aI21
aI1
aI21
aI0
aI0
aI0
aI2
aI2
aI3
aI1
aI1
aI5
aI11
aI1
aI5
aI84
aI31
aI1
aI2
aI0
aI2
aI37
aI34
aI45
aI41
aI62
aI1
aI29
aI3
aI68
aI2
aI31
aI0
aI0
aI47
aI48
aI0
aI1
aI28
aI38
aI55
aI6
aI0
aI0
aI2
aI0
aI3
aI4
aI4
aI2
aI3
aI2
aI24
aI6
aI27
aI7
aI11
aI9
aI49
aI34
aI30
aI11
aI29
aI36
aI9
aI10
aI118
aI89
aI118
aI52
asS'PursueBehavior'
p24
(lp25
I9
aI41
aI12
aI14
aI6
aI22
aI28
aI19
aI55
aI17
aI49
aI0
aI8
aI0
aI26
aI31
aI0
aI1
aI29
aI3
aI1
aI0
aI31
aI4
aI0
aI2
aI0
aI0
aI1
aI0
aI3
aI24
aI9
aI39
aI27
aI51
aI0
aI21
aI13
aI17
aI0
aI1
aI30
aI33
aI5
aI21
aI0
aI20
aI1
aI1
aI0
aI3
aI2
aI1
aI2
aI0
aI2
aI22
aI10
aI101
aI26
aI5
aI13
aI5
aI0
aI0
aI3
aI1
aI6
aI23
aI5
aI1
aI2
aI1
aI5
aI1
aI38
aI22
aI21
aI57
aI9
aI29
aI1
aI1
aI0
aI3
aI69
aI2
aI1
aI3
aI3
aI60
aI45
aI2
aI25
aI30
aI38
aI50
aI56
aI24
aI2
aI0
aI0
aI68
aI37
aI59
aI0
aI0
aI0
aI0
aI0
aI0
aI21
aI0
aI0
asS'SeekBehavior'
p26
(lp27
I6
aI6
aI0
aI1
aI2
aI3
aI25
aI0
aI25
aI9
aI56
aI1
aI45
aI3
aI15
aI14
aI1
aI12
aI36
aI41
aI15
aI14
aI80
aI22
aI12
aI1
aI13
aI27
aI60
aI17
aI58
aI31
aI37
aI37
aI25
aI22
aI20
aI69
aI10
aI10
aI32
aI25
aI94
aI25
aI70
aI34
aI33
aI85
aI18
aI14
aI16
aI117
aI98
aI21
aI54
aI11
aI75
aI48
aI1
aI24
aI16
aI3
aI5
aI11
aI17
aI17
aI41
aI32
aI25
aI32
aI51
aI18
aI56
aI30
aI57
aI12
aI58
aI2
aI5
aI22
aI29
aI4
aI12
aI21
aI38
aI56
aI25
aI10
aI13
aI36
aI15
aI61
aI12
aI17
aI19
aI22
aI20
aI56
aI34
aI56
aI22
aI6
aI4
aI16
aI31
aI2
aI10
aI5
aI6
aI5
aI8
aI7
aI14
aI0
aI1
asss.