(dp0
S'learn_scores'
p1
(lp2
F-437.0
aF-384.0
aF-398.0
aF-356.0
aF392.0
aF-424.0
aF-265.0
aF-303.0
aF-26.0
aF-341.0
aF-255.0
aF128.0
aF-456.0
aF-392.0
aF-470.0
aF-392.0
aF-450.0
aF-411.0
aF-259.0
aF-442.0
aF-362.0
aF-402.0
aF-382.0
aF-353.0
aF-409.0
aF-451.0
aF-303.0
aF-381.0
aF-405.0
aF-419.0
aF-420.0
aF-80.0
aF-380.0
aF-287.0
aF-420.0
aF-384.0
aF-327.0
aF-298.0
aF-301.0
aF-269.0
aF-468.0
aF240.0
aF-380.0
aF-410.0
aF-433.0
aF-483.0
aF226.0
aF-392.0
aF132.0
aF-383.0
aF-425.0
aF-53.0
aF-456.0
aF-354.0
aF-413.0
aF-451.0
aF-404.0
aF-379.0
aF-463.0
aF-384.0
aF-316.0
aF-438.0
aF-427.0
aF-422.0
aF-376.0
aF-357.0
aF-336.0
aF-473.0
aF-432.0
aF-420.0
aF-400.0
aF-404.0
aF-450.0
aF-297.0
aF-413.0
aF-274.0
aF-13.0
aF37.0
aF-455.0
aF-440.0
aF-444.0
aF-352.0
aF-382.0
aF-317.0
aF-474.0
aF-442.0
aF-463.0
aF-405.0
aF-357.0
aF-307.0
aF-368.0
aF-319.0
aF-392.0
aF-441.0
aF-322.0
aF-390.0
aF-444.0
aF-409.0
aF-425.0
aF-366.0
asS'test_scores'
p3
(lp4
F-348.0
aF-383.0
aF-474.0
aF-185.0
aF-430.0
aF-29.0
aF-376.0
aF-417.0
aF-348.0
aF-406.0
aF-411.0
aF-123.0
aF-414.0
aF56.0
aF-195.0
asS'behavior_count'
p5
(dp6
I1
(dp7
S'FleeBehavior'
p8
(lp9
I5
aI20
aI23
aI24
aI45
aI13
aI7
aI39
aI16
aI26
aI80
aI19
aI5
aI22
aI28
aI32
aI19
aI20
aI38
aI10
aI32
aI22
aI49
aI32
aI39
aI31
aI41
aI27
aI43
aI19
aI28
aI57
aI24
aI19
aI19
aI32
aI53
aI46
aI12
aI59
aI2
aI33
aI38
aI28
aI32
aI13
aI92
aI51
aI58
aI37
aI24
aI33
aI17
aI42
aI31
aI19
aI30
aI29
aI14
aI30
aI45
aI16
aI16
aI21
aI35
aI37
aI60
aI2
aI1
aI6
aI13
aI14
aI7
aI24
aI11
aI38
aI14
aI21
aI3
aI1
aI2
aI4
aI13
aI46
aI14
aI35
aI6
aI7
aI19
aI14
aI14
aI9
aI0
aI2
aI1
aI5
aI9
aI19
aI25
aI33
aI25
aI27
aI24
aI75
aI20
aI89
aI26
aI39
aI40
aI27
aI38
aI94
aI29
aI26
aI32
asS'PursueBehavior'
p10
(lp11
I4
aI4
aI6
aI3
aI54
aI22
aI44
aI3
aI80
aI4
aI24
aI34
aI22
aI19
aI2
aI7
aI1
aI1
aI0
aI1
aI0
aI1
aI2
aI2
aI0
aI1
aI1
aI4
aI0
aI0
aI1
aI10
aI5
aI46
aI0
aI2
aI3
aI11
aI39
aI23
aI3
aI9
aI10
aI1
aI2
aI0
aI13
aI1
aI10
aI5
aI1
aI18
aI0
aI1
aI0
aI0
aI2
aI0
aI0
aI3
aI0
aI2
aI0
aI1
aI0
aI0
aI2
aI11
aI18
aI21
aI35
aI30
aI13
aI70
aI13
aI34
aI54
aI35
aI13
aI18
aI13
aI34
aI37
aI2
aI0
aI5
aI2
aI18
aI2
aI1
aI2
aI0
aI0
aI0
aI3
aI4
aI0
aI0
aI1
aI3
aI0
aI0
aI0
aI0
aI0
aI0
aI0
aI0
aI0
aI0
aI0
aI0
aI0
aI0
aI0
asS'SeekBehavior'
p12
(lp13
I9
aI0
aI0
aI0
aI9
aI0
aI5
aI1
aI31
aI22
aI11
aI20
aI0
aI2
aI1
aI3
aI1
aI1
aI2
aI2
aI0
aI0
aI2
aI0
aI1
aI0
aI2
aI1
aI3
aI1
aI1
aI33
aI1
aI3
aI1
aI1
aI1
aI2
aI1
aI7
aI33
aI89
aI2
aI2
aI0
aI1
aI20
aI0
aI30
aI2
aI0
aI3
aI0
aI1
aI2
aI2
aI2
aI1
aI0
aI1
aI1
aI0
aI1
aI0
aI1
aI1
aI4
aI1
aI3
aI3
aI3
aI0
aI1
aI3
aI0
aI3
aI6
aI38
aI0
aI1
aI0
aI5
aI3
aI0
aI0
aI3
aI6
aI10
aI6
aI33
aI22
aI41
aI23
aI19
aI38
aI31
aI25
aI11
aI0
aI1
aI3
aI6
aI0
aI41
aI1
aI70
aI11
aI9
aI9
aI0
aI3
aI49
aI5
aI88
aI33
assI2
(dp14
S'FleeBehavior'
p15
(lp16
I2
aI0
aI1
aI0
aI16
aI11
aI50
aI39
aI64
aI4
aI13
aI4
aI3
aI1
aI1
aI0
aI2
aI1
aI1
aI0
aI3
aI0
aI6
aI2
aI2
aI6
aI37
aI3
aI2
aI0
aI0
aI16
aI2
aI2
aI2
aI12
aI24
aI19
aI49
aI63
aI20
aI67
aI18
aI2
aI1
aI0
aI16
aI13
aI47
aI23
aI21
aI26
aI15
aI33
aI32
aI13
aI28
aI27
aI14
aI30
aI38
aI10
aI0
aI0
aI2
aI4
aI27
aI9
aI7
aI1
aI3
aI17
aI1
aI5
aI1
aI14
aI5
aI13
aI6
aI15
aI13
aI27
aI39
aI25
aI10
aI32
aI3
aI2
aI0
aI1
aI5
aI6
aI0
aI2
aI1
aI1
aI1
aI0
aI3
aI1
aI0
aI0
aI0
aI0
aI0
aI88
aI0
aI0
aI0
aI0
aI0
aI0
aI0
aI0
aI0
asS'PursueBehavior'
p17
(lp18
I6
aI24
aI27
aI26
aI87
aI22
aI5
aI2
aI34
aI1
aI58
aI31
aI22
aI41
aI28
aI41
aI17
aI20
aI37
aI13
aI29
aI23
aI45
aI30
aI38
aI26
aI6
aI28
aI42
aI20
aI30
aI44
aI23
aI62
aI16
aI22
aI31
aI36
aI1
aI23
aI7
aI17
aI31
aI28
aI32
aI14
aI86
aI35
aI17
aI21
aI3
aI2
aI2
aI10
aI1
aI7
aI5
aI2
aI0
aI2
aI4
aI6
aI17
aI21
aI33
aI32
aI37
aI4
aI14
aI29
aI45
aI27
aI19
aI88
aI19
aI24
aI27
aI23
aI8
aI5
aI1
aI14
aI14
aI21
aI2
aI10
aI11
aI32
aI26
aI45
aI30
aI43
aI21
aI19
aI40
aI37
aI31
aI29
aI23
aI34
aI28
aI33
aI24
aI76
aI21
aI32
aI0
aI0
aI1
aI1
aI0
aI10
aI0
aI9
aI6
asS'SeekBehavior'
p19
(lp20
I10
aI0
aI0
aI1
aI5
aI2
aI1
aI2
aI28
aI47
aI44
aI38
aI1
aI0
aI1
aI1
aI1
aI1
aI2
aI0
aI0
aI0
aI2
aI2
aI0
aI0
aI1
aI0
aI2
aI0
aI0
aI40
aI5
aI4
aI2
aI0
aI2
aI4
aI2
aI3
aI11
aI46
aI1
aI0
aI1
aI0
aI23
aI4
aI34
aI0
aI1
aI25
aI0
aI1
aI0
aI1
aI1
aI1
aI0
aI2
aI4
aI2
aI0
aI1
aI1
aI2
aI2
aI1
aI1
aI0
aI3
aI0
aI1
aI4
aI4
aI37
aI41
aI58
aI1
aI0
aI1
aI1
aI0
aI1
aI2
aI1
aI0
aI1
aI1
aI2
aI3
aI1
aI2
aI0
aI1
aI2
aI2
aI0
aI0
aI2
aI0
aI0
aI0
aI40
aI0
aI39
aI37
aI47
aI47
aI26
aI41
aI133
aI34
aI105
aI59
assI3
(dp21
S'FleeBehavior'
p22
(lp23
I4
aI1
aI4
aI23
aI55
aI14
aI13
aI40
aI68
aI1
aI46
aI29
aI25
aI40
aI28
aI37
aI20
aI20
aI36
aI13
aI29
aI0
aI1
aI0
aI0
aI4
aI40
aI26
aI42
aI20
aI22
aI26
aI1
aI36
aI0
aI14
aI44
aI43
aI4
aI29
aI9
aI17
aI4
aI1
aI1
aI1
aI5
aI0
aI22
aI0
aI0
aI4
aI1
aI2
aI2
aI2
aI1
aI1
aI1
aI1
aI0
aI0
aI0
aI0
aI0
aI0
aI5
aI0
aI2
aI0
aI3
aI1
aI1
aI5
aI0
aI5
aI28
aI34
aI15
aI16
aI13
aI40
aI46
aI44
aI7
aI37
aI13
aI29
aI21
aI36
aI9
aI12
aI0
aI1
aI2
aI28
aI27
aI28
aI22
aI34
aI26
aI29
aI24
aI66
aI20
aI103
aI0
aI0
aI5
aI2
aI0
aI0
aI0
aI0
aI0
asS'PursueBehavior'
p24
(lp25
I2
aI0
aI0
aI2
aI37
aI6
aI1
aI2
aI24
aI7
aI42
aI12
aI1
aI2
aI1
aI1
aI0
aI1
aI2
aI0
aI3
aI22
aI52
aI34
aI39
aI26
aI2
aI2
aI3
aI0
aI7
aI36
aI28
aI32
aI20
aI20
aI11
aI13
aI46
aI45
aI24
aI69
aI45
aI27
aI31
aI13
aI114
aI50
aI40
aI43
aI24
aI44
aI12
aI18
aI23
aI3
aI3
aI1
aI0
aI2
aI22
aI4
aI3
aI2
aI0
aI1
aI5
aI4
aI8
aI28
aI35
aI16
aI19
aI87
aI23
aI48
aI8
aI40
aI0
aI3
aI0
aI1
aI7
aI2
aI7
aI2
aI0
aI5
aI6
aI11
aI27
aI21
aI14
aI7
aI9
aI9
aI5
aI0
aI4
aI2
aI2
aI4
aI0
aI10
aI1
aI4
aI0
aI1
aI2
aI0
aI0
aI9
aI3
aI4
aI11
asS'SeekBehavior'
p26
(lp27
I11
aI23
aI24
aI2
aI16
aI15
aI42
aI1
aI34
aI44
aI27
aI32
aI0
aI0
aI1
aI4
aI0
aI1
aI1
aI0
aI0
aI0
aI0
aI0
aI1
aI2
aI1
aI3
aI1
aI0
aI1
aI38
aI1
aI0
aI0
aI0
aI2
aI3
aI2
aI15
aI5
aI44
aI1
aI2
aI1
aI0
aI6
aI2
aI36
aI1
aI1
aI5
aI4
aI24
aI8
aI16
aI30
aI27
aI13
aI31
aI24
aI14
aI14
aI20
aI36
aI37
aI56
aI10
aI12
aI2
aI13
aI27
aI1
aI5
aI1
aI22
aI37
aI20
aI0
aI1
aI1
aI1
aI0
aI1
aI0
aI3
aI0
aI1
aI0
aI1
aI2
aI17
aI8
aI13
aI31
aI3
aI2
aI1
aI0
aI1
aI0
aI0
aI0
aI40
aI0
aI52
aI37
aI46
aI41
aI24
aI41
aI134
aI31
aI110
aI54
assI4
(dp28
S'FleeBehavior'
p29
(lp30
I4
aI1
aI1
aI2
aI23
aI6
aI41
aI7
aI15
aI47
aI40
aI16
aI1
aI0
aI1
aI4
aI0
aI0
aI1
aI3
aI5
aI0
aI3
aI2
aI1
aI1
aI6
aI0
aI2
aI0
aI0
aI41
aI2
aI4
aI0
aI0
aI1
aI3
aI6
aI50
aI22
aI79
aI2
aI0
aI3
aI0
aI32
aI2
aI36
aI8
aI0
aI20
aI8
aI6
aI2
aI1
aI3
aI0
aI1
aI1
aI0
aI1
aI1
aI2
aI1
aI1
aI4
aI0
aI2
aI2
aI3
aI1
aI1
aI7
aI0
aI25
aI68
aI43
aI1
aI1
aI2
aI6
aI18
aI2
aI0
aI4
aI0
aI1
aI0
aI2
aI2
aI1
aI0
aI1
aI2
aI0
aI1
aI2
aI1
aI1
aI0
aI0
aI0
aI40
aI0
aI30
aI0
aI0
aI0
aI0
aI0
aI39
aI0
aI15
aI0
asS'PursueBehavior'
p31
(lp32
I8
aI22
aI25
aI25
aI44
aI5
aI5
aI34
aI85
aI3
aI47
aI27
aI1
aI1
aI1
aI6
aI1
aI1
aI1
aI1
aI2
aI0
aI6
aI16
aI6
aI22
aI29
aI28
aI43
aI19
aI29
aI53
aI28
aI58
aI19
aI32
aI45
aI16
aI4
aI17
aI12
aI28
aI34
aI28
aI28
aI13
aI88
aI45
aI33
aI35
aI25
aI31
aI8
aI38
aI31
aI19
aI29
aI29
aI13
aI30
aI43
aI17
aI16
aI20
aI32
aI37
aI59
aI13
aI18
aI25
aI45
aI42
aI19
aI90
aI23
aI46
aI4
aI38
aI12
aI19
aI12
aI35
aI32
aI45
aI14
aI38
aI13
aI33
aI27
aI45
aI36
aI47
aI20
aI19
aI39
aI40
aI32
aI24
aI23
aI33
aI28
aI33
aI24
aI76
aI20
aI29
aI0
aI0
aI0
aI1
aI0
aI7
aI2
aI3
aI0
asS'SeekBehavior'
p33
(lp34
I5
aI1
aI2
aI0
aI41
aI24
aI10
aI2
aI26
aI1
aI28
aI29
aI24
aI41
aI28
aI32
aI19
aI20
aI37
aI9
aI25
aI22
aI44
aI15
aI32
aI9
aI8
aI3
aI1
aI0
aI1
aI6
aI0
aI6
aI1
aI2
aI11
aI39
aI41
aI22
aI4
aI23
aI14
aI2
aI2
aI0
aI5
aI5
aI29
aI1
aI0
aI2
aI1
aI0
aI0
aI1
aI2
aI0
aI0
aI3
aI3
aI0
aI0
aI0
aI3
aI0
aI3
aI0
aI2
aI3
aI2
aI1
aI0
aI0
aI0
aI3
aI1
aI13
aI2
aI0
aI0
aI1
aI2
aI0
aI0
aI0
aI0
aI1
aI0
aI0
aI0
aI2
aI2
aI1
aI1
aI0
aI1
aI3
aI1
aI2
aI0
aI0
aI0
aI0
aI0
aI100
aI36
aI47
aI48
aI25
aI41
aI97
aI32
aI96
aI65
asss.