(dp0
S'learn_scores'
p1
(lp2
F-392.0
aF-439.0
aF-176.0
aF-353.0
aF-109.0
aF-427.0
aF-340.0
aF-315.0
aF-371.0
aF-288.0
aF-430.0
aF-303.0
aF-322.0
aF-291.0
aF-392.0
aF-397.0
aF-390.0
aF-378.0
aF-284.0
aF-278.0
aF-408.0
aF-414.0
aF-426.0
aF-432.0
aF-407.0
aF-448.0
aF-359.0
aF-341.0
aF-459.0
aF-388.0
aF-439.0
aF-360.0
aF-412.0
aF40.0
aF-363.0
aF812.0
aF-339.0
aF-362.0
aF-271.0
aF-374.0
aF-411.0
aF-266.0
aF-396.0
aF-389.0
aF-380.0
aF-426.0
aF-390.0
aF-392.0
aF-446.0
aF89.0
aF-430.0
aF-433.0
aF-436.0
aF-431.0
aF-346.0
aF-383.0
aF-408.0
aF-437.0
aF-296.0
aF-436.0
aF-435.0
aF-415.0
aF-145.0
aF-431.0
aF-432.0
aF-390.0
aF-281.0
aF-440.0
aF-410.0
aF-401.0
aF-387.0
aF-418.0
aF-374.0
aF-435.0
aF-403.0
aF-451.0
aF-324.0
aF-380.0
aF-451.0
aF-438.0
aF6.0
aF-373.0
aF-315.0
aF-266.0
aF-423.0
aF-433.0
aF-453.0
aF-408.0
aF-452.0
aF-405.0
aF-378.0
aF-370.0
aF-298.0
aF-339.0
aF-444.0
aF-351.0
aF-425.0
aF-276.0
aF-259.0
aF-408.0
asS'test_scores'
p3
(lp4
F-409.0
aF-402.0
aF-432.0
aF-395.0
aF-358.0
aF-470.0
aF-397.0
aF-450.0
aF-380.0
aF-450.0
aF-384.0
aF-365.0
aF-385.0
aF-355.0
aF-412.0
asS'behavior_count'
p5
(dp6
I1
(dp7
S'FleeBehavior'
p8
(lp9
I3
aI1
aI13
aI34
aI73
aI28
aI45
aI51
aI36
aI30
aI0
aI0
aI1
aI3
aI2
aI1
aI1
aI1
aI1
aI8
aI3
aI0
aI1
aI0
aI1
aI0
aI2
aI0
aI4
aI2
aI1
aI1
aI0
aI19
aI1
aI38
aI42
aI31
aI46
aI46
aI28
aI73
aI30
aI46
aI39
aI44
aI18
aI21
aI25
aI40
aI21
aI21
aI27
aI30
aI24
aI51
aI27
aI15
aI58
aI24
aI12
aI23
aI88
aI12
aI11
aI28
aI56
aI20
aI28
aI21
aI27
aI18
aI33
aI22
aI39
aI12
aI50
aI36
aI38
aI8
aI75
aI33
aI52
aI102
aI23
aI21
aI12
aI34
aI10
aI42
aI36
aI30
aI55
aI47
aI22
aI39
aI14
aI65
aI45
aI18
aI39
aI23
aI13
aI56
aI29
aI31
aI27
aI11
aI50
aI20
aI55
aI46
aI25
aI66
aI22
asS'PursueBehavior'
p10
(lp11
I5
aI18
aI42
aI0
aI31
aI0
aI4
aI3
aI4
aI13
aI11
aI42
aI57
aI91
aI27
aI44
aI20
aI27
aI51
aI80
aI25
aI13
aI26
aI22
aI37
aI18
aI47
aI31
aI35
aI27
aI19
aI46
aI22
aI70
aI33
aI153
aI32
aI2
aI4
aI3
aI1
aI0
aI3
aI2
aI1
aI0
aI0
aI0
aI0
aI18
aI0
aI1
aI0
aI1
aI1
aI2
aI0
aI0
aI4
aI3
aI3
aI2
aI5
aI0
aI2
aI1
aI2
aI0
aI1
aI1
aI1
aI0
aI2
aI0
aI2
aI0
aI4
aI1
aI0
aI1
aI3
aI0
aI3
aI2
aI1
aI1
aI0
aI2
aI0
aI2
aI2
aI1
aI3
aI1
aI2
aI1
aI0
aI2
aI3
aI0
aI0
aI0
aI0
aI0
aI0
aI0
aI0
aI0
aI0
aI0
aI0
aI0
aI0
aI0
aI0
asS'SeekBehavior'
p12
(lp13
I4
aI0
aI1
aI0
aI6
aI0
aI2
aI2
aI1
aI6
aI0
aI2
aI5
aI7
aI3
aI3
aI0
aI1
aI2
aI0
aI1
aI1
aI0
aI1
aI0
aI0
aI1
aI1
aI1
aI0
aI0
aI4
aI1
aI32
aI0
aI37
aI26
aI0
aI1
aI5
aI2
aI4
aI3
aI2
aI0
aI3
aI3
aI1
aI1
aI14
aI0
aI2
aI0
aI0
aI1
aI1
aI1
aI2
aI5
aI0
aI0
aI0
aI22
aI0
aI0
aI2
aI4
aI1
aI1
aI0
aI0
aI0
aI0
aI4
aI3
aI0
aI1
aI3
aI3
aI0
aI17
aI1
aI1
aI3
aI0
aI1
aI2
aI2
aI2
aI2
aI1
aI0
aI1
aI2
aI0
aI2
aI2
aI0
aI2
aI1
aI0
aI0
aI0
aI0
aI0
aI0
aI0
aI0
aI0
aI0
aI0
aI0
aI0
aI0
aI0
assI2
(dp14
S'FleeBehavior'
p15
(lp16
I4
aI1
aI6
aI3
aI17
aI2
aI10
aI52
aI35
aI41
aI0
aI1
aI3
aI11
aI29
aI20
aI18
aI26
aI31
aI16
aI26
aI4
aI1
aI2
aI2
aI0
aI2
aI1
aI3
aI1
aI1
aI1
aI0
aI17
aI2
aI40
aI20
aI1
aI10
aI3
aI1
aI3
aI1
aI2
aI0
aI3
aI1
aI1
aI1
aI10
aI1
aI3
aI1
aI0
aI4
aI2
aI0
aI1
aI4
aI4
aI1
aI1
aI12
aI0
aI1
aI0
aI4
aI0
aI0
aI0
aI0
aI1
aI2
aI0
aI2
aI1
aI2
aI4
aI0
aI0
aI33
aI2
aI0
aI8
aI1
aI0
aI3
aI2
aI1
aI0
aI3
aI0
aI4
aI2
aI1
aI0
aI0
aI2
aI2
aI0
aI0
aI0
aI0
aI0
aI0
aI0
aI0
aI0
aI0
aI0
aI0
aI0
aI0
aI0
aI0
asS'PursueBehavior'
p17
(lp18
I5
aI18
aI47
aI30
aI45
aI25
aI40
aI2
aI3
aI3
aI0
aI1
aI1
aI9
aI2
aI27
aI1
aI1
aI1
aI3
aI2
aI9
aI25
aI20
aI35
aI17
aI45
aI27
aI22
aI0
aI0
aI2
aI0
aI34
aI16
aI88
aI54
aI31
aI36
aI5
aI30
aI72
aI33
aI48
aI39
aI42
aI19
aI21
aI24
aI57
aI20
aI21
aI26
aI29
aI20
aI49
aI27
aI16
aI62
aI21
aI14
aI23
aI70
aI11
aI12
aI31
aI55
aI19
aI28
aI22
aI27
aI16
aI31
aI26
aI41
aI10
aI51
aI36
aI40
aI9
aI56
aI31
aI54
aI94
aI21
aI13
aI1
aI1
aI0
aI9
aI9
aI7
aI14
aI13
aI18
aI27
aI14
aI55
aI12
aI19
aI39
aI23
aI12
aI56
aI29
aI31
aI27
aI11
aI50
aI20
aI55
aI46
aI25
aI66
aI22
asS'SeekBehavior'
p19
(lp20
I3
aI0
aI3
aI1
aI47
aI0
aI1
aI2
aI3
aI5
aI11
aI42
aI59
aI81
aI1
aI1
aI1
aI2
aI22
aI69
aI1
aI1
aI0
aI1
aI1
aI1
aI3
aI4
aI14
aI28
aI18
aI47
aI23
aI70
aI16
aI100
aI26
aI1
aI5
aI46
aI0
aI2
aI2
aI0
aI1
aI2
aI0
aI0
aI1
aI5
aI0
aI0
aI0
aI2
aI2
aI2
aI1
aI0
aI1
aI1
aI0
aI1
aI33
aI0
aI0
aI0
aI2
aI1
aI2
aI0
aI1
aI1
aI2
aI0
aI1
aI1
aI1
aI0
aI1
aI0
aI6
aI1
aI2
aI4
aI2
aI10
aI10
aI35
aI11
aI37
aI27
aI24
aI40
aI35
aI5
aI14
aI1
aI9
aI36
aI0
aI0
aI0
aI0
aI0
aI0
aI0
aI0
aI0
aI0
aI0
aI0
aI0
aI0
aI0
aI0
assI3
(dp21
S'FleeBehavior'
p22
(lp23
I5
aI19
aI51
aI0
aI22
aI0
aI1
aI0
aI3
aI2
aI0
aI2
aI2
aI4
aI4
aI37
aI20
aI22
aI45
aI39
aI23
aI12
aI25
aI19
aI32
aI17
aI45
aI28
aI36
aI26
aI18
aI39
aI21
aI72
aI4
aI82
aI22
aI27
aI28
aI36
aI8
aI14
aI2
aI0
aI1
aI0
aI1
aI0
aI0
aI9
aI1
aI0
aI2
aI1
aI2
aI1
aI0
aI1
aI3
aI1
aI0
aI0
aI4
aI0
aI0
aI1
aI3
aI0
aI0
aI1
aI1
aI2
aI0
aI0
aI0
aI0
aI1
aI2
aI3
aI0
aI2
aI1
aI2
aI5
aI1
aI1
aI1
aI2
aI0
aI1
aI0
aI0
aI1
aI0
aI2
aI2
aI0
aI5
aI0
aI1
aI0
aI0
aI0
aI0
aI0
aI0
aI0
aI0
aI0
aI0
aI0
aI0
aI0
aI0
aI0
asS'PursueBehavior'
p24
(lp25
I3
aI0
aI0
aI0
aI11
aI26
aI48
aI53
aI32
aI44
aI0
aI4
aI7
aI16
aI1
aI4
aI0
aI1
aI4
aI1
aI3
aI0
aI0
aI0
aI3
aI0
aI4
aI1
aI0
aI2
aI1
aI8
aI0
aI30
aI24
aI43
aI28
aI1
aI2
aI2
aI13
aI21
aI26
aI42
aI37
aI43
aI14
aI1
aI0
aI24
aI2
aI0
aI1
aI0
aI0
aI2
aI1
aI0
aI4
aI1
aI2
aI0
aI31
aI0
aI0
aI2
aI3
aI1
aI1
aI1
aI2
aI0
aI1
aI0
aI0
aI0
aI1
aI1
aI0
aI0
aI18
aI0
aI0
aI3
aI0
aI0
aI0
aI0
aI0
aI3
aI4
aI2
aI1
aI1
aI1
aI1
aI1
aI2
aI1
aI0
aI0
aI0
aI0
aI0
aI0
aI0
aI0
aI0
aI0
aI0
aI0
aI0
aI0
aI0
aI0
asS'SeekBehavior'
p26
(lp27
I4
aI0
aI5
aI33
aI76
aI1
aI2
aI3
aI6
aI3
aI11
aI38
aI54
aI81
aI27
aI7
aI0
aI5
aI5
aI48
aI2
aI2
aI1
aI3
aI3
aI1
aI1
aI2
aI3
aI1
aI0
aI3
aI2
aI19
aI6
aI103
aI50
aI5
aI21
aI16
aI10
aI42
aI8
aI8
aI2
aI4
aI5
aI21
aI26
aI39
aI18
aI24
aI23
aI30
aI24
aI50
aI27
aI16
aI60
aI24
aI13
aI25
aI80
aI11
aI12
aI28
aI55
aI19
aI29
aI19
aI25
aI16
aI34
aI25
aI44
aI11
aI52
aI37
aI38
aI9
aI74
aI33
aI53
aI98
aI22
aI22
aI13
aI36
aI12
aI42
aI34
aI28
aI56
aI48
aI21
aI38
aI14
aI59
aI49
aI18
aI39
aI23
aI12
aI56
aI29
aI30
aI27
aI11
aI50
aI20
aI55
aI46
aI25
aI66
aI22
assI4
(dp28
S'FleeBehavior'
p29
(lp30
I5
aI19
aI37
aI1
aI29
aI3
aI1
aI7
aI3
aI2
aI0
aI3
aI1
aI4
aI2
aI2
aI1
aI0
aI3
aI39
aI0
aI0
aI1
aI1
aI3
aI1
aI2
aI0
aI1
aI3
aI0
aI1
aI0
aI19
aI0
aI59
aI9
aI12
aI2
aI7
aI1
aI8
aI0
aI1
aI2
aI3
aI0
aI0
aI2
aI25
aI0
aI0
aI1
aI3
aI1
aI3
aI2
aI0
aI4
aI2
aI2
aI1
aI42
aI0
aI0
aI0
aI0
aI0
aI1
aI0
aI0
aI0
aI0
aI0
aI1
aI0
aI3
aI3
aI0
aI0
aI32
aI1
aI3
aI0
aI0
aI0
aI0
aI2
aI0
aI2
aI0
aI1
aI1
aI1
aI3
aI3
aI1
aI4
aI3
aI0
aI0
aI0
aI0
aI0
aI0
aI0
aI0
aI0
aI0
aI0
aI0
aI0
aI0
aI0
aI0
asS'PursueBehavior'
p31
(lp32
I4
aI0
aI2
aI0
aI6
aI0
aI2
aI13
aI2
aI2
aI0
aI2
aI0
aI4
aI1
aI2
aI0
aI0
aI1
aI5
aI0
aI0
aI0
aI0
aI0
aI0
aI0
aI0
aI2
aI1
aI0
aI1
aI0
aI11
aI0
aI30
aI3
aI2
aI2
aI1
aI0
aI0
aI3
aI2
aI2
aI2
aI1
aI0
aI0
aI2
aI1
aI2
aI0
aI1
aI0
aI1
aI2
aI1
aI4
aI1
aI0
aI1
aI3
aI0
aI0
aI1
aI1
aI0
aI2
aI1
aI1
aI0
aI0
aI1
aI1
aI0
aI3
aI1
aI1
aI0
aI1
aI1
aI3
aI4
aI1
aI0
aI0
aI4
aI1
aI3
aI1
aI3
aI0
aI1
aI2
aI2
aI0
aI4
aI3
aI2
aI0
aI0
aI0
aI0
aI0
aI0
aI0
aI0
aI0
aI0
aI0
aI0
aI0
aI0
aI0
asS'SeekBehavior'
p33
(lp34
I3
aI0
aI17
aI32
aI74
aI24
aI48
aI36
aI36
aI45
aI11
aI38
aI61
aI93
aI29
aI44
aI19
aI28
aI50
aI44
aI28
aI14
aI25
aI21
aI34
aI17
aI48
aI31
aI36
aI24
aI19
aI48
aI23
aI91
aI33
aI139
aI87
aI18
aI47
aI46
aI30
aI69
aI33
aI47
aI36
aI41
aI19
aI22
aI24
aI44
aI19
aI21
aI25
aI27
aI25
aI49
aI24
aI16
aI59
aI23
aI13
aI23
aI70
aI11
aI12
aI29
aI60
aI20
aI27
aI20
aI26
aI18
aI34
aI24
aI42
aI11
aI48
aI36
aI40
aI8
aI61
aI32
aI49
aI102
aI22
aI23
aI13
aI32
aI11
aI40
aI37
aI26
aI57
aI47
aI19
aI36
aI14
aI58
aI44
aI17
aI39
aI23
aI12
aI56
aI29
aI30
aI27
aI10
aI50
aI20
aI54
aI46
aI25
aI65
aI22
asss.