(dp0
S'learn_scores'
p1
(lp2
F-375.0
aF-342.0
aF91.0
aF-316.0
aF-335.0
aF-441.0
aF-392.0
aF-236.0
aF-281.0
aF-402.0
aF-335.0
aF-412.0
aF-404.0
aF-301.0
aF-313.0
aF-370.0
aF-223.0
aF-251.0
aF-412.0
aF-357.0
aF-436.0
aF-371.0
aF-309.0
aF-354.0
aF-351.0
aF-221.0
aF-325.0
aF-349.0
aF-403.0
aF-231.0
aF-411.0
aF-381.0
aF-428.0
aF-431.0
aF-339.0
aF68.0
aF-292.0
aF-267.0
aF-406.0
aF-466.0
aF-302.0
aF-379.0
aF131.0
aF-198.0
aF-381.0
aF-319.0
aF-200.0
aF-444.0
aF-341.0
aF-360.0
aF-360.0
aF-404.0
aF43.0
aF7.0
aF-404.0
aF-350.0
aF-431.0
aF-359.0
aF-333.0
aF-217.0
aF-341.0
aF-245.0
aF-324.0
aF-431.0
aF-331.0
aF-271.0
aF-446.0
aF-235.0
aF-380.0
aF-448.0
aF-427.0
aF-331.0
aF171.0
aF-315.0
aF-368.0
aF-369.0
aF-428.0
aF-262.0
aF-368.0
aF-374.0
aF7.0
aF-409.0
aF-305.0
aF-217.0
aF-406.0
aF-69.0
aF-381.0
aF-144.0
aF-285.0
aF-424.0
aF-341.0
aF-420.0
aF256.0
aF-236.0
aF-264.0
aF-452.0
aF-432.0
aF-382.0
aF-419.0
aF-368.0
asS'test_scores'
p3
(lp4
F298.0
aF-191.0
aF-451.0
aF-292.0
aF-107.0
aF-433.0
aF-379.0
aF-243.0
aF-384.0
aF142.0
aF-287.0
aF305.0
aF-326.0
aF-281.0
aF-244.0
asS'behavior_count'
p5
(dp6
I1
(dp7
S'FleeBehavior'
p8
(lp9
I8
aI17
aI18
aI3
aI31
aI7
aI0
aI21
aI17
aI2
aI0
aI0
aI4
aI1
aI6
aI5
aI8
aI1
aI0
aI1
aI2
aI0
aI0
aI0
aI0
aI2
aI13
aI17
aI2
aI6
aI1
aI4
aI4
aI1
aI1
aI25
aI28
aI51
aI2
aI0
aI1
aI0
aI2
aI21
aI16
aI28
aI24
aI10
aI1
aI0
aI2
aI1
aI5
aI3
aI5
aI1
aI0
aI1
aI3
aI8
aI5
aI46
aI25
aI15
aI4
aI13
aI6
aI7
aI8
aI0
aI1
aI1
aI5
aI2
aI0
aI1
aI0
aI1
aI2
aI1
aI19
aI0
aI1
aI9
aI0
aI5
aI6
aI2
aI11
aI10
aI8
aI1
aI27
aI27
aI36
aI4
aI4
aI7
aI0
aI5
aI12
aI5
aI0
aI9
aI20
aI0
aI15
aI3
aI0
aI9
aI0
aI7
aI7
aI5
aI7
asS'PursueBehavior'
p10
(lp11
I13
aI30
aI85
aI4
aI2
aI2
aI22
aI27
aI10
aI1
aI1
aI1
aI0
aI5
aI17
aI19
aI53
aI33
aI26
aI2
aI7
aI25
aI16
aI20
aI7
aI25
aI1
aI2
aI1
aI0
aI0
aI0
aI0
aI0
aI0
aI9
aI2
aI26
aI17
aI13
aI22
aI2
aI13
aI64
aI3
aI0
aI3
aI1
aI2
aI0
aI0
aI0
aI30
aI17
aI1
aI1
aI0
aI1
aI1
aI1
aI1
aI2
aI0
aI0
aI45
aI3
aI0
aI1
aI2
aI0
aI6
aI0
aI25
aI0
aI2
aI0
aI0
aI1
aI1
aI0
aI26
aI0
aI3
aI31
aI1
aI79
aI15
aI41
aI8
aI1
aI0
aI0
aI51
aI1
aI5
aI1
aI0
aI2
aI0
aI0
aI22
aI0
aI0
aI17
aI39
aI0
aI0
aI0
aI0
aI4
aI0
aI0
aI0
aI0
aI0
asS'SeekBehavior'
p12
(lp13
I4
aI5
aI37
aI49
aI3
aI23
aI11
aI39
aI25
aI19
aI34
aI21
aI41
aI35
aI50
aI46
aI12
aI8
aI6
aI15
aI17
aI27
aI14
aI14
aI15
aI34
aI11
aI10
aI11
aI36
aI11
aI37
aI4
aI21
aI28
aI99
aI12
aI51
aI18
aI23
aI10
aI18
aI24
aI43
aI12
aI11
aI14
aI23
aI38
aI21
aI49
aI13
aI83
aI43
aI29
aI29
aI41
aI17
aI40
aI79
aI36
aI57
aI20
aI6
aI23
aI45
aI20
aI38
aI41
aI19
aI50
aI31
aI49
aI34
aI17
aI58
aI9
aI40
aI35
aI34
aI128
aI19
aI22
aI37
aI15
aI66
aI21
aI31
aI36
aI13
aI13
aI10
aI66
aI39
aI34
aI18
aI9
aI14
aI9
aI34
aI129
aI67
aI41
aI56
aI38
aI43
aI24
aI60
aI45
aI95
aI38
aI89
aI49
aI67
aI137
assI2
(dp14
S'FleeBehavior'
p15
(lp16
I4
aI14
aI54
aI4
aI3
aI0
aI3
aI32
aI9
aI0
aI2
aI1
aI3
aI1
aI5
aI11
aI20
aI1
aI2
aI1
aI1
aI2
aI1
aI2
aI1
aI4
aI0
aI1
aI0
aI3
aI0
aI0
aI1
aI1
aI0
aI26
aI0
aI14
aI1
aI2
aI0
aI0
aI2
aI38
aI2
aI0
aI5
aI2
aI2
aI0
aI2
aI0
aI6
aI14
aI7
aI20
aI5
aI4
aI34
aI67
aI20
aI71
aI11
aI0
aI1
aI2
aI1
aI1
aI5
aI1
aI2
aI1
aI1
aI1
aI2
aI3
aI0
aI0
aI1
aI1
aI6
aI0
aI0
aI3
aI1
aI4
aI3
aI24
aI1
aI1
aI0
aI2
aI24
aI2
aI4
aI0
aI0
aI0
aI0
aI1
aI16
aI0
aI0
aI7
aI0
aI0
aI0
aI0
aI0
aI0
aI0
aI0
aI0
aI0
aI0
asS'PursueBehavior'
p17
(lp18
I13
aI10
aI50
aI42
aI30
aI31
aI29
aI54
aI39
aI22
aI32
aI19
aI41
aI39
aI64
aI46
aI38
aI36
aI30
aI16
aI25
aI50
aI26
aI28
aI21
aI56
aI23
aI28
aI13
aI39
aI11
aI39
aI7
aI21
aI29
aI104
aI37
aI97
aI16
aI29
aI18
aI19
aI32
aI37
aI27
aI34
aI35
aI32
aI39
aI21
aI46
aI14
aI91
aI12
aI27
aI8
aI35
aI15
aI8
aI17
aI20
aI27
aI21
aI20
aI13
aI24
aI17
aI21
aI41
aI13
aI11
aI30
aI36
aI33
aI16
aI54
aI9
aI37
aI37
aI34
aI159
aI17
aI25
aI53
aI15
aI143
aI39
aI41
aI53
aI22
aI20
aI8
aI84
aI63
aI60
aI19
aI13
aI21
aI9
aI35
aI141
aI71
aI41
aI49
aI66
aI43
aI39
aI63
aI45
aI99
aI37
aI87
aI56
aI72
aI144
asS'SeekBehavior'
p19
(lp20
I8
aI28
aI35
aI10
aI2
aI1
aI1
aI1
aI3
aI0
aI1
aI2
aI1
aI1
aI4
aI13
aI15
aI5
aI0
aI1
aI0
aI0
aI2
aI4
aI0
aI1
aI2
aI0
aI0
aI0
aI1
aI2
aI0
aI0
aI0
aI3
aI5
aI17
aI19
aI5
aI14
aI1
aI5
aI53
aI2
aI5
aI0
aI0
aI0
aI0
aI3
aI0
aI20
aI37
aI1
aI2
aI1
aI0
aI1
aI4
aI2
aI7
aI13
aI1
aI57
aI35
aI8
aI23
aI4
aI5
aI44
aI1
aI42
aI1
aI1
aI2
aI0
aI5
aI0
aI0
aI8
aI2
aI1
aI21
aI0
aI3
aI0
aI9
aI1
aI1
aI1
aI0
aI36
aI2
aI11
aI4
aI0
aI2
aI0
aI2
aI6
aI0
aI0
aI26
aI31
aI0
aI0
aI0
aI0
aI9
aI0
aI9
aI0
aI0
aI0
assI3
(dp21
S'FleeBehavior'
p22
(lp23
I13
aI2
aI20
aI3
aI12
aI23
aI23
aI11
aI8
aI0
aI0
aI1
aI1
aI2
aI2
aI2
aI5
aI41
aI30
aI16
aI24
aI41
aI25
aI28
aI18
aI26
aI1
aI0
aI0
aI3
aI0
aI7
aI0
aI2
aI1
aI14
aI12
aI27
aI2
aI1
aI1
aI0
aI0
aI15
aI1
aI0
aI1
aI1
aI0
aI0
aI1
aI0
aI0
aI3
aI1
aI2
aI1
aI2
aI3
aI1
aI0
aI3
aI4
aI2
aI5
aI0
aI1
aI3
aI1
aI1
aI1
aI0
aI1
aI2
aI1
aI2
aI1
aI4
aI0
aI1
aI15
aI10
aI11
aI12
aI0
aI23
aI29
aI23
aI23
aI12
aI1
aI0
aI16
aI27
aI19
aI6
aI0
aI0
aI1
aI7
aI14
aI15
aI14
aI1
aI47
aI15
aI4
aI18
aI5
aI31
aI11
aI20
aI24
aI20
aI30
asS'PursueBehavior'
p24
(lp25
I4
aI19
aI27
aI2
aI2
aI2
aI5
aI22
aI29
aI2
aI25
aI18
aI41
aI39
aI71
aI56
aI9
aI0
aI1
aI0
aI1
aI8
aI4
aI4
aI3
aI31
aI22
aI29
aI13
aI37
aI11
aI32
aI8
aI17
aI27
aI108
aI30
aI97
aI33
aI35
aI30
aI18
aI34
aI81
aI29
aI35
aI38
aI32
aI40
aI20
aI45
aI14
aI109
aI55
aI32
aI28
aI36
aI16
aI39
aI84
aI41
aI99
aI41
aI19
aI31
aI59
aI25
aI40
aI48
aI17
aI54
aI31
aI53
aI32
aI18
aI54
aI8
aI38
aI37
aI32
aI121
aI7
aI13
aI25
aI15
aI88
aI12
aI33
aI28
aI12
aI18
aI9
aI91
aI37
aI52
aI15
aI12
aI23
aI8
aI31
aI103
aI56
aI27
aI42
aI12
aI28
aI35
aI45
aI40
aI55
aI26
aI42
aI32
aI52
aI114
asS'SeekBehavior'
p26
(lp27
I8
aI31
aI92
aI51
aI21
aI7
aI4
aI53
aI14
aI20
aI10
aI3
aI2
aI0
aI0
aI12
aI59
aI0
aI1
aI1
aI1
aI2
aI0
aI2
aI1
aI4
aI2
aI0
aI0
aI1
aI0
aI2
aI0
aI2
aI1
aI11
aI0
aI4
aI1
aI0
aI1
aI1
aI5
aI32
aI1
aI4
aI1
aI1
aI1
aI1
aI5
aI0
aI8
aI5
aI2
aI0
aI4
aI1
aI1
aI2
aI1
aI3
aI0
aI0
aI35
aI2
aI0
aI2
aI1
aI1
aI2
aI0
aI25
aI1
aI0
aI3
aI0
aI0
aI1
aI1
aI37
aI2
aI2
aI40
aI1
aI38
aI0
aI18
aI4
aI0
aI2
aI1
aI37
aI3
aI4
aI2
aI1
aI0
aI0
aI0
aI46
aI0
aI0
aI39
aI38
aI0
aI0
aI0
aI0
aI22
aI0
aI33
aI0
aI0
aI0
asss.