(dp0
S'learn_scores'
p1
(lp2
F1719.0
aF1510.0
aF1332.0
aF321.0
aF430.0
aF1510.0
aF1299.0
aF1332.0
aF1718.0
aF1532.0
aF1680.0
aF1517.0
aF1337.0
aF538.0
aF1512.0
aF1732.0
aF1924.0
aF1922.0
aF1519.0
aF518.0
aF1523.0
aF1497.0
aF1695.0
aF-311.0
aF186.0
aF1701.0
aF200.0
aF426.0
aF1532.0
aF-318.0
aF-202.0
aF-67.0
aF1491.0
aF824.0
aF1922.0
aF1307.0
aF1694.0
aF669.0
aF24.0
aF1325.0
aF382.0
aF1315.0
aF457.0
aF1517.0
aF1316.0
aF1728.0
aF1531.0
aF1500.0
aF1658.0
aF-354.0
aF510.0
aF-179.0
aF1503.0
aF1336.0
aF1336.0
aF1527.0
aF1920.0
aF-365.0
aF-155.0
aF1341.0
aF-118.0
aF1331.0
aF1718.0
aF1734.0
aF694.0
aF1320.0
aF407.0
aF1465.0
aF1509.0
aF1536.0
aF16.0
aF1728.0
aF1536.0
aF1527.0
aF1526.0
aF-286.0
aF1511.0
aF246.0
aF-154.0
aF-50.0
aF1721.0
aF164.0
aF1739.0
aF1316.0
aF206.0
aF-262.0
aF1678.0
aF1503.0
aF1274.0
aF1318.0
aF698.0
aF1532.0
aF1532.0
aF445.0
aF1338.0
aF1742.0
aF1303.0
aF1517.0
aF1294.0
aF-8.0
asS'test_scores'
p3
(lp4
F1497.0
aF488.0
aF-30.0
aF1489.0
aF1345.0
aF1741.0
aF1498.0
aF252.0
aF1720.0
aF-321.0
aF1516.0
aF1534.0
aF-46.0
aF-328.0
aF697.0
asS'behavior_count'
p5
(dp6
I1
(dp7
S'FleeBehavior'
p8
(lp9
I58
aI29
aI65
aI3
aI1
aI30
aI85
aI95
aI5
aI22
aI129
aI126
aI60
aI4
aI38
aI47
aI110
aI8
aI7
aI122
aI128
aI6
aI11
aI2
aI5
aI49
aI87
aI87
aI46
aI0
aI1
aI2
aI5
aI26
aI23
aI6
aI9
aI95
aI58
aI58
aI5
aI101
aI132
aI102
aI97
aI56
aI105
aI92
aI19
aI2
aI4
aI1
aI38
aI104
aI97
aI80
aI18
aI1
aI2
aI44
aI1
aI23
aI28
aI9
aI30
aI6
aI35
aI8
aI54
aI44
aI1
aI5
aI19
aI97
aI111
aI2
aI8
aI4
aI2
aI0
aI27
aI5
aI9
aI3
aI7
aI1
aI37
aI10
aI3
aI5
aI79
aI80
aI97
aI96
aI104
aI94
aI120
aI95
aI94
aI58
aI76
aI54
aI49
aI93
aI99
aI80
aI107
aI38
aI96
aI9
aI84
aI97
aI27
aI16
aI54
asS'PursueBehavior'
p10
(lp11
I51
aI61
aI12
aI9
aI65
aI56
aI58
aI7
aI89
aI1
aI25
aI6
aI54
aI38
aI41
aI58
aI10
aI64
aI126
aI5
aI8
aI31
aI70
aI29
aI97
aI62
aI4
aI11
aI80
aI27
aI26
aI57
aI105
aI51
aI11
aI76
aI94
aI26
aI2
aI6
aI3
aI4
aI6
aI7
aI16
aI57
aI6
aI4
aI106
aI23
aI108
aI38
aI117
aI25
aI27
aI39
aI70
aI15
aI49
aI77
aI53
aI110
aI109
aI109
aI65
aI119
aI60
aI63
aI18
aI46
aI61
aI123
aI78
aI6
aI4
aI6
aI88
aI63
aI6
aI25
aI64
aI25
aI64
aI69
aI98
aI28
aI133
aI139
aI143
aI133
aI56
aI20
aI8
aI1
aI5
aI7
aI5
aI5
aI6
aI3
aI0
aI0
aI0
aI0
aI0
aI0
aI0
aI0
aI0
aI0
aI0
aI0
aI0
aI0
aI0
asS'SeekBehavior'
p12
(lp13
I42
aI70
aI61
aI78
aI45
aI74
aI28
aI36
aI58
aI115
aI36
aI21
aI19
aI50
aI79
aI33
aI26
aI76
aI18
aI6
aI11
aI136
aI94
aI1
aI3
aI58
aI0
aI7
aI12
aI2
aI26
aI8
aI69
aI50
aI114
aI81
aI73
aI21
aI47
aI81
aI100
aI50
aI25
aI44
aI41
aI29
aI28
aI74
aI87
aI0
aI9
aI1
aI12
aI5
aI10
aI24
aI62
aI0
aI5
aI8
aI5
aI6
aI15
aI18
aI72
aI25
aI9
aI134
aI89
aI44
aI3
aI14
aI37
aI40
aI29
aI19
aI63
aI48
aI37
aI16
aI58
aI37
aI58
aI82
aI80
aI4
aI22
aI18
aI50
aI14
aI18
aI38
aI33
aI29
aI23
aI27
aI42
aI53
aI76
aI58
aI97
aI29
aI41
aI88
aI26
aI49
aI65
aI30
aI54
aI13
aI70
aI39
aI40
aI13
aI79
assI2
(dp14
S'FleeBehavior'
p15
(lp16
I45
aI44
aI56
aI51
aI26
aI14
aI62
aI7
aI53
aI123
aI52
aI95
aI107
aI7
aI15
aI66
aI34
aI94
aI11
aI51
aI142
aI103
aI163
aI23
aI3
aI8
aI4
aI2
aI4
aI13
aI2
aI4
aI5
aI47
aI79
aI111
aI32
aI70
aI87
aI97
aI92
aI123
aI97
aI7
aI125
aI16
aI110
aI9
aI9
aI2
aI6
aI1
aI4
aI75
aI110
aI107
aI44
aI4
aI3
aI45
aI3
aI4
aI1
aI2
aI11
aI4
aI43
aI83
aI18
aI8
aI3
aI4
aI6
aI103
aI46
aI14
aI34
aI63
aI12
aI8
aI6
aI1
aI4
aI3
aI7
aI3
aI2
aI3
aI9
aI4
aI4
aI9
aI36
aI80
aI86
aI97
aI88
aI81
aI111
aI73
aI72
aI38
aI18
aI65
aI114
aI108
aI49
aI58
aI54
aI3
aI124
aI72
aI33
aI15
aI117
asS'PursueBehavior'
p17
(lp18
I59
aI56
aI14
aI0
aI78
aI138
aI49
aI34
aI93
aI4
aI99
aI29
aI5
aI11
aI54
aI64
aI107
aI42
aI70
aI26
aI2
aI5
aI4
aI8
aI65
aI98
aI11
aI4
aI46
aI15
aI50
aI61
aI162
aI66
aI66
aI30
aI20
aI67
aI11
aI41
aI16
aI22
aI40
aI44
aI22
aI42
aI23
aI142
aI85
aI18
aI108
aI39
aI157
aI57
aI20
aI30
aI57
aI11
aI49
aI81
aI56
aI127
aI147
aI93
aI62
aI61
aI59
aI116
aI136
aI122
aI12
aI71
aI47
aI35
aI32
aI11
aI119
aI47
aI32
aI24
aI63
aI9
aI18
aI16
aI46
aI5
aI112
aI96
aI100
aI68
aI87
aI29
aI43
aI40
aI40
aI28
aI73
aI61
aI53
aI39
aI101
aI45
aI72
aI116
aI11
aI21
aI123
aI10
aI96
aI19
aI30
aI64
aI34
aI14
aI16
asS'SeekBehavior'
p19
(lp20
I47
aI60
aI68
aI38
aI6
aI8
aI60
aI97
aI6
aI11
aI39
aI29
aI21
aI74
aI89
aI8
aI5
aI12
aI70
aI56
aI3
aI65
aI8
aI1
aI36
aI63
aI76
aI98
aI88
aI1
aI1
aI2
aI12
aI13
aI3
aI22
aI124
aI4
aI9
aI7
aI0
aI10
aI26
aI102
aI7
aI84
aI6
aI19
aI118
aI5
aI7
aI0
aI6
aI2
aI4
aI6
aI49
aI1
aI4
aI3
aI0
aI8
aI4
aI41
aI93
aI85
aI1
aI6
aI7
aI4
aI50
aI67
aI81
aI5
aI66
aI2
aI6
aI5
aI1
aI8
aI80
aI57
aI109
aI135
aI132
aI25
aI78
aI68
aI87
aI80
aI61
aI100
aI59
aI5
aI6
aI3
aI6
aI11
aI12
aI6
aI0
aI0
aI0
aI0
aI0
aI0
aI0
aI0
aI0
aI0
aI0
aI0
aI0
aI0
aI0
asss.