(dp0
S'learn_scores'
p1
(lp2
F178.0
aF-236.0
aF-432.0
aF-104.0
aF-450.0
aF217.0
aF-314.0
aF-323.0
aF-143.0
aF-404.0
aF-410.0
aF-417.0
aF-351.0
aF-422.0
aF-206.0
aF-373.0
aF-449.0
aF-228.0
aF-390.0
aF-314.0
aF-261.0
aF-219.0
aF-407.0
aF-455.0
aF-399.0
aF-410.0
aF-346.0
aF-202.0
aF-171.0
aF-409.0
aF-403.0
aF-348.0
aF-387.0
aF-391.0
aF-455.0
aF-438.0
aF-328.0
aF-468.0
aF-357.0
aF-270.0
aF-423.0
aF-298.0
aF-446.0
aF-316.0
aF-393.0
aF-141.0
aF-222.0
aF-354.0
aF-360.0
aF-296.0
aF-370.0
aF-345.0
aF-383.0
aF-258.0
aF39.0
aF-444.0
aF-129.0
aF-263.0
aF-435.0
aF-374.0
aF-429.0
aF-374.0
aF-314.0
aF-233.0
aF-380.0
aF-191.0
aF-147.0
aF-231.0
aF-316.0
aF-114.0
aF-432.0
aF-274.0
aF-303.0
aF-100.0
aF-399.0
aF-275.0
aF-73.0
aF-451.0
aF-388.0
aF-377.0
aF-413.0
aF-341.0
aF-319.0
aF-331.0
aF-338.0
aF-280.0
aF-371.0
aF-364.0
aF-422.0
aF-370.0
aF-86.0
aF-403.0
aF-411.0
aF-296.0
aF-419.0
aF-327.0
aF-306.0
aF-187.0
aF-310.0
aF-372.0
asS'test_scores'
p3
(lp4
F-270.0
aF-378.0
aF-341.0
aF329.0
aF-222.0
aF-372.0
aF-410.0
aF-198.0
aF57.0
aF-377.0
aF-244.0
aF-402.0
aF-151.0
aF-377.0
aF176.0
asS'behavior_count'
p5
(dp6
I1
(dp7
S'FleeBehavior'
p8
(lp9
I22
aI89
aI0
aI24
aI9
aI120
aI21
aI2
aI2
aI0
aI1
aI2
aI0
aI1
aI20
aI14
aI1
aI51
aI38
aI6
aI4
aI2
aI1
aI0
aI1
aI0
aI3
aI10
aI7
aI1
aI0
aI0
aI0
aI2
aI0
aI0
aI0
aI1
aI1
aI1
aI1
aI0
aI0
aI1
aI0
aI1
aI1
aI1
aI0
aI1
aI3
aI1
aI1
aI2
aI8
aI1
aI48
aI34
aI22
aI23
aI15
aI121
aI51
aI61
aI19
aI81
aI76
aI77
aI22
aI47
aI10
aI24
aI7
aI89
aI8
aI8
aI18
aI1
aI0
aI1
aI1
aI0
aI3
aI1
aI1
aI6
aI0
aI0
aI1
aI0
aI1
aI3
aI1
aI1
aI0
aI2
aI1
aI3
aI3
aI0
aI38
aI0
aI0
aI29
aI39
aI0
aI0
aI11
aI20
aI0
aI0
aI0
aI0
aI0
aI36
asS'PursueBehavior'
p10
(lp11
I45
aI30
aI13
aI63
aI1
aI45
aI4
aI0
aI41
aI0
aI0
aI1
aI0
aI1
aI2
aI0
aI0
aI5
aI4
aI2
aI1
aI0
aI3
aI2
aI2
aI1
aI0
aI25
aI88
aI38
aI21
aI16
aI17
aI38
aI26
aI28
aI24
aI37
aI34
aI59
aI12
aI27
aI16
aI35
aI23
aI67
aI68
aI23
aI20
aI44
aI27
aI24
aI12
aI63
aI89
aI33
aI147
aI9
aI2
aI1
aI4
aI15
aI0
aI1
aI1
aI6
aI2
aI5
aI23
aI3
aI1
aI6
aI2
aI12
aI21
aI60
aI49
aI1
aI1
aI2
aI1
aI1
aI3
aI7
aI2
aI34
aI0
aI2
aI0
aI5
aI3
aI1
aI0
aI0
aI0
aI2
aI1
aI1
aI0
aI0
aI2
aI0
aI0
aI50
aI1
aI0
aI0
aI29
aI20
aI0
aI0
aI0
aI0
aI0
aI1
asS'SeekBehavior'
p12
(lp13
I96
aI127
aI0
aI18
aI0
aI9
aI29
aI21
aI81
aI14
aI9
aI55
aI42
aI10
aI65
aI10
aI19
aI83
aI39
aI56
aI37
aI38
aI24
aI23
aI46
aI10
aI23
aI58
aI7
aI0
aI2
aI2
aI0
aI2
aI0
aI1
aI5
aI0
aI2
aI0
aI0
aI2
aI0
aI1
aI0
aI3
aI3
aI0
aI0
aI1
aI1
aI1
aI0
aI3
aI4
aI1
aI4
aI1
aI1
aI0
aI1
aI19
aI3
aI2
aI1
aI5
aI9
aI19
aI12
aI5
aI2
aI15
aI44
aI40
aI11
aI7
aI27
aI19
aI18
aI14
aI12
aI21
aI74
aI13
aI36
aI21
aI32
aI62
aI11
aI26
aI82
aI20
aI11
aI35
aI9
aI74
aI24
aI64
aI48
aI43
aI41
aI19
aI51
aI173
aI162
aI52
aI10
aI199
aI94
aI17
aI65
aI32
aI62
aI18
aI57
assI2
(dp14
S'FleeBehavior'
p15
(lp16
I84
aI108
aI0
aI24
aI10
aI91
aI11
aI2
aI44
aI6
aI7
aI54
aI39
aI12
aI81
aI24
aI18
aI85
aI62
aI55
aI9
aI0
aI1
aI1
aI3
aI2
aI0
aI25
aI39
aI35
aI20
aI15
aI7
aI38
aI21
aI10
aI1
aI13
aI31
aI53
aI9
aI26
aI14
aI30
aI22
aI33
aI63
aI21
aI19
aI41
aI25
aI23
aI12
aI61
aI64
aI30
aI130
aI39
aI13
aI4
aI2
aI37
aI25
aI40
aI8
aI20
aI24
aI45
aI31
aI47
aI13
aI42
aI43
aI41
aI9
aI10
aI40
aI2
aI0
aI1
aI0
aI1
aI2
aI0
aI1
aI1
aI1
aI4
aI0
aI2
aI5
aI2
aI1
aI1
aI0
aI3
aI1
aI2
aI0
aI4
aI0
aI0
aI0
aI0
aI0
aI0
aI0
aI0
aI0
aI0
aI0
aI0
aI0
aI0
aI0
asS'PursueBehavior'
p17
(lp18
I50
aI74
aI13
aI62
aI0
aI37
aI3
aI2
aI19
aI5
aI2
aI2
aI1
aI0
aI3
aI0
aI0
aI41
aI12
aI2
aI1
aI1
aI0
aI2
aI1
aI0
aI2
aI2
aI3
aI1
aI1
aI1
aI1
aI0
aI0
aI1
aI0
aI3
aI3
aI1
aI0
aI0
aI1
aI0
aI0
aI3
aI3
aI1
aI0
aI1
aI1
aI2
aI0
aI3
aI15
aI2
aI24
aI1
aI3
aI2
aI0
aI4
aI0
aI1
aI1
aI5
aI11
aI14
aI1
aI0
aI0
aI1
aI0
aI31
aI10
aI8
aI13
aI16
aI16
aI15
aI13
aI19
aI67
aI20
aI34
aI51
aI28
aI57
aI11
aI25
aI70
aI21
aI10
aI30
aI7
aI66
aI24
aI59
aI46
aI34
aI80
aI17
aI51
aI227
aI192
aI51
aI9
aI231
aI132
aI17
aI64
aI30
aI58
aI16
aI94
asS'SeekBehavior'
p19
(lp20
I28
aI64
aI0
aI18
aI0
aI46
aI40
aI19
aI60
aI3
aI1
aI2
aI1
aI0
aI2
aI0
aI2
aI12
aI6
aI7
aI32
aI38
aI27
aI22
aI45
aI9
aI24
aI66
aI59
aI3
aI2
aI2
aI9
aI3
aI5
aI18
aI27
aI22
aI3
aI6
aI4
aI2
aI1
aI7
aI1
aI35
aI6
aI2
aI1
aI4
aI4
aI0
aI1
aI4
aI22
aI3
aI45
aI4
aI9
aI18
aI18
aI114
aI29
aI23
aI12
aI67
aI52
aI42
aI25
aI8
aI0
aI2
aI10
aI68
aI20
aI57
aI40
aI3
aI2
aI1
aI0
aI1
aI11
aI1
aI3
aI9
aI2
aI3
aI1
aI4
aI11
aI0
aI0
aI5
aI2
aI9
aI1
aI6
aI4
aI5
aI0
aI2
aI0
aI24
aI10
aI1
aI1
aI7
aI1
aI0
aI1
aI2
aI4
aI2
aI0
asss.