(dp0
S'learn_scores'
p1
(lp2
F-18.0
aF-364.0
aF312.0
aF129.0
aF-287.0
aF-374.0
aF432.0
aF133.0
aF1116.0
aF2095.0
aF70.0
aF1931.0
aF103.0
aF720.0
aF1666.0
aF500.0
aF1714.0
aF-284.0
aF406.0
aF901.0
aF2057.0
aF397.0
aF1483.0
aF-298.0
aF-36.0
aF795.0
aF2132.0
aF1353.0
aF1662.0
aF84.0
aF405.0
aF82.0
aF-288.0
aF367.0
aF-281.0
aF-357.0
aF1516.0
aF-392.0
aF654.0
aF-303.0
aF501.0
aF883.0
aF-9.0
aF-401.0
aF1292.0
aF-91.0
aF-122.0
aF2107.0
aF1316.0
aF-338.0
aF45.0
aF-350.0
aF1905.0
aF137.0
aF1936.0
aF-242.0
aF1916.0
aF616.0
aF494.0
aF-374.0
aF-72.0
aF227.0
aF1722.0
aF235.0
aF258.0
aF2100.0
aF514.0
aF1692.0
aF-63.0
aF45.0
aF261.0
aF418.0
aF573.0
aF-252.0
aF396.0
aF379.0
aF994.0
aF510.0
aF308.0
aF-9.0
aF-289.0
aF1308.0
aF-304.0
aF41.0
aF-98.0
aF-332.0
aF-251.0
aF599.0
aF166.0
aF354.0
aF1708.0
aF577.0
aF706.0
aF-320.0
aF241.0
aF1705.0
aF41.0
aF90.0
aF87.0
aF-6.0
asS'test_scores'
p3
(lp4
F1627.0
aF817.0
aF981.0
aF1683.0
aF368.0
aF-20.0
aF322.0
aF196.0
aF1705.0
aF75.0
aF295.0
aF2295.0
aF-213.0
aF263.0
aF609.0
asS'behavior_count'
p5
(dp6
I1
(dp7
S'FleeBehavior'
p8
(lp9
I23
aI9
aI20
aI16
aI0
aI2
aI78
aI11
aI90
aI109
aI20
aI51
aI19
aI28
aI98
aI53
aI75
aI16
aI74
aI124
aI103
aI17
aI85
aI12
aI30
aI54
aI37
aI24
aI90
aI28
aI60
aI53
aI8
aI55
aI6
aI12
aI100
aI7
aI84
aI5
aI49
aI83
aI48
aI10
aI81
aI17
aI16
aI110
aI92
aI17
aI24
aI5
aI105
aI105
aI81
aI30
aI83
aI93
aI90
aI10
aI41
aI32
aI92
aI31
aI39
aI79
aI20
aI88
aI29
aI69
aI16
aI74
aI34
aI24
aI39
aI29
aI54
aI59
aI89
aI40
aI9
aI79
aI10
aI55
aI22
aI29
aI19
aI61
aI47
aI23
aI101
aI91
aI51
aI6
aI45
aI59
aI8
aI12
aI28
aI27
aI15
aI0
aI0
aI0
aI0
aI0
aI0
aI0
aI0
aI0
aI0
aI0
aI0
aI0
aI0
asS'PursueBehavior'
p10
(lp11
I22
aI11
aI30
aI44
aI5
aI3
aI43
aI9
aI28
aI37
aI25
aI52
aI47
aI37
aI59
aI48
aI45
aI1
aI5
aI9
aI33
aI43
aI68
aI4
aI13
aI77
aI48
aI52
aI66
aI8
aI40
aI8
aI2
aI15
aI3
aI6
aI25
aI5
aI27
aI1
aI18
aI29
aI3
aI1
aI18
aI9
aI36
aI30
aI4
aI5
aI20
aI9
aI33
aI46
aI22
aI1
aI52
aI8
aI53
aI0
aI25
aI44
aI30
aI26
aI34
aI63
aI26
aI56
aI21
aI42
aI25
aI10
aI7
aI17
aI13
aI25
aI63
aI12
aI43
aI18
aI5
aI20
aI13
aI24
aI6
aI4
aI7
aI16
aI16
aI40
aI44
aI30
aI24
aI2
aI27
aI51
aI23
aI40
aI11
aI6
aI228
aI164
aI110
aI187
aI73
aI70
aI69
aI74
aI165
aI66
aI106
aI175
aI43
aI47
aI112
asS'SeekBehavior'
p12
(lp13
I33
aI15
aI39
aI12
aI23
aI10
aI18
aI7
aI17
aI29
aI5
aI36
aI22
aI26
aI47
aI40
aI36
aI8
aI16
aI27
aI77
aI64
aI34
aI13
aI4
aI45
aI53
aI41
aI52
aI1
aI26
aI18
aI19
aI14
aI23
aI0
aI29
aI1
aI55
aI18
aI53
aI36
aI19
aI1
aI50
aI16
aI21
aI23
aI58
aI6
aI2
aI6
aI27
aI73
aI31
aI1
aI19
aI24
aI24
aI5
aI7
aI8
aI26
aI29
aI40
aI28
aI31
aI34
aI14
aI35
aI39
aI19
aI67
aI1
aI13
aI18
aI20
aI10
aI21
aI32
aI16
aI63
aI2
aI10
aI1
aI0
aI16
aI34
aI42
aI14
aI17
aI13
aI10
aI13
aI8
aI55
aI9
aI19
aI15
aI14
aI0
aI0
aI0
aI0
aI0
aI0
aI0
aI0
aI0
aI0
aI0
aI0
aI0
aI0
aI0
assI2
(dp14
S'FleeBehavior'
p15
(lp16
I28
aI12
aI13
aI11
aI1
aI0
aI19
aI1
aI21
aI35
aI10
aI8
aI25
aI27
aI24
aI40
aI35
aI3
aI24
aI16
aI26
aI7
aI6
aI8
aI25
aI18
aI35
aI22
aI35
aI16
aI33
aI13
aI1
aI4
aI1
aI1
aI5
aI0
aI29
aI0
aI12
aI34
aI21
aI6
aI72
aI34
aI1
aI28
aI4
aI1
aI2
aI0
aI7
aI7
aI4
aI0
aI19
aI3
aI7
aI3
aI8
aI4
aI15
aI43
aI84
aI25
aI1
aI5
aI10
aI38
aI31
aI3
aI6
aI23
aI26
aI43
aI46
aI5
aI5
aI5
aI1
aI3
aI0
aI2
aI0
aI1
aI0
aI4
aI9
aI48
aI37
aI8
aI39
aI1
aI28
aI28
aI12
aI21
aI9
aI8
aI123
aI62
aI12
aI45
aI10
aI13
aI12
aI19
aI15
aI8
aI19
aI49
aI3
aI12
aI26
asS'PursueBehavior'
p17
(lp18
I28
aI12
aI15
aI27
aI9
aI9
aI63
aI22
aI103
aI108
aI17
aI120
aI30
aI43
aI143
aI57
aI99
aI21
aI66
aI134
aI125
aI98
aI121
aI4
aI5
aI122
aI44
aI24
aI110
aI14
aI53
aI40
aI27
aI61
aI10
aI15
aI133
aI11
aI99
aI24
aI54
aI65
aI36
aI0
aI39
aI2
aI42
aI105
aI122
aI9
aI14
aI20
aI152
aI177
aI93
aI26
aI116
aI104
aI134
aI8
aI28
aI52
aI118
aI36
aI24
aI90
aI35
aI74
aI29
aI47
aI25
aI68
aI99
aI14
aI33
aI19
aI53
aI75
aI134
aI69
aI18
aI106
aI12
aI72
aI18
aI25
aI30
aI82
aI50
aI24
aI109
aI90
aI15
aI19
aI41
aI114
aI9
aI42
aI36
aI26
aI9
aI0
aI0
aI0
aI0
aI0
aI0
aI0
aI0
aI0
aI0
aI26
aI0
aI0
aI0
asS'SeekBehavior'
p19
(lp20
I22
aI11
aI61
aI33
aI18
aI6
aI57
aI4
aI11
aI32
aI23
aI11
aI33
aI20
aI37
aI43
aI22
aI1
aI5
aI10
aI62
aI18
aI60
aI17
aI16
aI36
aI59
aI71
aI63
aI7
aI40
aI26
aI1
aI19
aI21
aI2
aI16
aI2
aI38
aI0
aI53
aI49
aI13
aI6
aI37
aI6
aI30
aI30
aI28
aI18
aI29
aI0
aI6
aI40
aI37
aI6
aI19
aI18
aI26
aI4
aI37
aI28
aI15
aI7
aI4
aI55
aI41
aI99
aI25
aI61
aI24
aI32
aI3
aI5
aI6
aI10
aI37
aI1
aI14
aI16
aI11
aI53
aI13
aI15
aI11
aI7
aI12
aI25
aI46
aI5
aI16
aI36
aI31
aI1
aI11
aI23
aI18
aI8
aI9
aI13
aI111
aI102
aI98
aI142
aI62
aI57
aI57
aI55
aI150
aI57
aI86
aI100
aI40
aI35
aI85
assI3
(dp21
S'FleeBehavior'
p22
(lp23
I28
aI13
aI53
aI55
aI27
aI11
aI78
aI15
aI74
aI133
aI31
aI85
aI48
aI42
aI34
aI27
aI75
aI5
aI14
aI120
aI66
aI12
aI46
aI1
aI11
aI42
aI17
aI26
aI78
aI10
aI39
aI4
aI0
aI24
aI2
aI0
aI55
aI12
aI89
aI22
aI17
aI43
aI57
aI12
aI121
aI30
aI3
aI80
aI77
aI2
aI31
aI0
aI22
aI96
aI45
aI1
aI31
aI19
aI42
aI9
aI26
aI35
aI51
aI60
aI82
aI67
aI33
aI118
aI11
aI72
aI20
aI29
aI13
aI1
aI30
aI11
aI5
aI17
aI38
aI5
aI1
aI6
aI0
aI1
aI9
aI2
aI3
aI28
aI6
aI33
aI28
aI48
aI34
aI1
aI19
aI70
aI37
aI36
aI38
aI16
aI7
aI0
aI0
aI0
aI0
aI0
aI0
aI0
aI0
aI0
aI0
aI0
aI0
aI0
aI0
asS'PursueBehavior'
p24
(lp25
I29
aI6
aI20
aI6
aI1
aI3
aI28
aI4
aI20
aI26
aI7
aI29
aI28
aI10
aI53
aI73
aI51
aI1
aI15
aI37
aI64
aI64
aI52
aI5
aI17
aI54
aI61
aI50
aI33
aI20
aI62
aI41
aI10
aI16
aI17
aI14
aI61
aI0
aI18
aI2
aI59
aI77
aI9
aI0
aI22
aI7
aI56
aI59
aI47
aI3
aI9
aI0
aI75
aI58
aI41
aI5
aI53
aI63
aI87
aI4
aI32
aI34
aI54
aI12
aI18
aI61
aI37
aI53
aI37
aI54
aI43
aI39
aI75
aI29
aI23
aI58
aI99
aI51
aI66
aI62
aI18
aI105
aI10
aI62
aI6
aI9
aI30
aI65
aI57
aI20
aI103
aI76
aI42
aI13
aI38
aI62
aI2
aI28
aI11
aI24
aI236
aI164
aI109
aI187
aI72
aI70
aI69
aI74
aI165
aI65
aI105
aI175
aI43
aI47
aI111
asS'SeekBehavior'
p26
(lp27
I21
aI15
aI15
aI10
aI0
aI0
aI32
aI8
aI40
aI16
aI12
aI25
aI11
aI38
aI117
aI40
aI30
aI19
aI65
aI3
aI83
aI47
aI89
aI23
aI18
aI80
aI60
aI41
aI97
aI7
aI24
aI34
aI19
aI43
aI13
aI4
aI38
aI0
aI59
aI0
aI43
aI28
aI3
aI0
aI5
aI5
aI14
aI24
aI30
aI23
aI5
aI20
aI68
aI70
aI48
aI26
aI70
aI43
aI38
aI1
aI14
aI14
aI43
aI13
aI12
aI42
aI7
aI7
aI15
aI20
aI17
aI35
aI20
aI12
aI12
aI3
aI32
aI13
aI48
aI22
aI10
aI51
aI15
aI26
aI14
aI21
aI8
aI18
aI42
aI24
aI31
aI10
aI9
aI7
aI23
aI33
aI0
aI6
aI5
aI6
aI0
aI0
aI0
aI0
aI0
aI0
aI0
aI0
aI0
aI0
aI0
aI0
aI0
aI0
aI0
assI4
(dp28
S'FleeBehavior'
p29
(lp30
I30
aI13
aI13
aI1
aI3
aI12
aI49
aI5
aI38
aI5
aI1
aI79
aI7
aI22
aI127
aI69
aI24
aI1
aI23
aI20
aI23
aI23
aI48
aI28
aI30
aI29
aI42
aI8
aI57
aI8
aI29
aI68
aI11
aI18
aI24
aI11
aI64
aI0
aI40
aI8
aI73
aI120
aI16
aI3
aI33
aI1
aI68
aI83
aI33
aI2
aI3
aI0
aI13
aI9
aI15
aI22
aI25
aI14
aI74
aI0
aI21
aI7
aI24
aI6
aI2
aI5
aI9
aI17
aI4
aI5
aI14
aI97
aI95
aI2
aI11
aI25
aI68
aI21
aI4
aI5
aI1
aI18
aI0
aI22
aI13
aI2
aI2
aI35
aI18
aI2
aI78
aI78
aI19
aI2
aI52
aI117
aI18
aI28
aI33
aI39
aI9
aI0
aI0
aI0
aI0
aI0
aI0
aI0
aI0
aI0
aI0
aI0
aI0
aI0
aI0
asS'PursueBehavior'
p31
(lp32
I17
aI8
aI15
aI41
aI1
aI0
aI21
aI20
aI45
aI108
aI6
aI38
aI39
aI46
aI44
aI37
aI89
aI23
aI62
aI135
aI134
aI59
aI66
aI0
aI2
aI115
aI78
aI103
aI83
aI28
aI32
aI5
aI18
aI63
aI6
aI7
aI84
aI12
aI117
aI15
aI29
aI17
aI52
aI6
aI90
aI40
aI2
aI74
aI93
aI24
aI30
aI20
aI133
aI186
aI109
aI10
aI97
aI97
aI87
aI13
aI50
aI74
aI108
aI73
aI106
aI137
aI65
aI157
aI55
aI136
aI64
aI3
aI1
aI37
aI23
aI43
aI49
aI56
aI145
aI81
aI25
aI136
aI24
aI65
aI15
aI28
aI38
aI55
aI84
aI73
aI76
aI36
aI46
aI19
aI26
aI36
aI21
aI36
aI20
aI3
aI234
aI164
aI109
aI187
aI72
aI70
aI68
aI74
aI165
aI65
aI105
aI175
aI43
aI47
aI111
asS'SeekBehavior'
p33
(lp34
I31
aI13
aI60
aI29
aI24
aI2
aI68
aI2
aI51
aI62
aI43
aI22
aI41
aI22
aI33
aI34
aI43
aI1
aI9
aI5
aI56
aI41
aI73
aI1
aI14
aI31
aI18
aI6
aI68
aI1
aI64
aI5
aI0
aI2
aI2
aI0
aI6
aI0
aI9
aI1
aI17
aI11
aI1
aI3
aI25
aI1
aI2
aI6
aI28
aI2
aI12
aI0
aI19
aI28
aI10
aI0
aI32
aI13
aI6
aI1
aI1
aI2
aI16
aI6
aI4
aI28
aI3
aI4
aI4
aI4
aI2
aI2
aI11
aI3
aI31
aI4
aI19
aI4
aI3
aI3
aI3
aI8
aI1
aI2
aI0
aI2
aI1
aI21
aI3
aI2
aI8
aI19
aI19
aI0
aI1
aI12
aI0
aI6
aI1
aI4
aI0
aI0
aI0
aI0
aI0
aI0
aI0
aI0
aI0
aI0
aI0
aI0
aI0
aI0
aI0
asss.