(dp0
S'learn_scores'
p1
(lp2
F-419.0
aF-320.0
aF252.0
aF-404.0
aF-384.0
aF-381.0
aF-488.0
aF-320.0
aF-354.0
aF-446.0
aF-121.0
aF-46.0
aF-402.0
aF-285.0
aF-327.0
aF-122.0
aF-456.0
aF-421.0
aF-434.0
aF-434.0
aF-378.0
aF-420.0
aF-407.0
aF90.0
aF163.0
aF-398.0
aF-387.0
aF-410.0
aF-363.0
aF-367.0
aF-392.0
aF-472.0
aF-183.0
aF-414.0
aF-429.0
aF507.0
aF-318.0
aF-374.0
aF55.0
aF-367.0
aF-410.0
aF-335.0
aF-440.0
aF-445.0
aF-393.0
aF-353.0
aF-305.0
aF-255.0
aF-386.0
aF-221.0
aF-356.0
aF-155.0
aF-402.0
aF-486.0
aF-454.0
aF-439.0
aF-392.0
aF-455.0
aF-237.0
aF-378.0
aF-86.0
aF104.0
aF-438.0
aF-225.0
aF-26.0
aF-431.0
aF-444.0
aF103.0
aF-424.0
aF-266.0
aF-396.0
aF-398.0
aF-450.0
aF-397.0
aF-437.0
aF-379.0
aF-371.0
aF-341.0
aF-374.0
aF171.0
aF-329.0
aF-338.0
aF-420.0
aF-436.0
aF-338.0
aF-356.0
aF-416.0
aF-397.0
aF-434.0
aF-430.0
aF-414.0
aF-460.0
aF-420.0
aF-479.0
aF-5.0
aF-9.0
aF-407.0
aF-389.0
aF-389.0
aF-457.0
asS'test_scores'
p3
(lp4
F-425.0
aF-188.0
aF176.0
aF-373.0
aF-468.0
aF-407.0
aF-222.0
aF-429.0
aF-383.0
aF-408.0
aF-274.0
aF-294.0
aF-452.0
aF-118.0
aF-397.0
asS'behavior_count'
p5
(dp6
I1
(dp7
S'FleeBehavior'
p8
(lp9
I9
aI2
aI45
aI0
aI2
aI2
aI3
aI21
aI32
aI16
aI52
aI19
aI1
aI10
aI36
aI32
aI1
aI2
aI1
aI3
aI0
aI0
aI0
aI15
aI19
aI0
aI2
aI0
aI0
aI2
aI0
aI1
aI5
aI2
aI0
aI42
aI1
aI0
aI42
aI0
aI3
aI31
aI29
aI23
aI41
aI38
aI32
aI10
aI9
aI37
aI25
aI80
aI22
aI16
aI24
aI17
aI31
aI23
aI101
aI20
aI43
aI76
aI0
aI2
aI17
aI28
aI1
aI25
aI4
aI7
aI26
aI25
aI25
aI32
aI9
aI14
aI26
aI47
aI31
aI50
aI54
aI42
aI49
aI32
aI33
aI73
aI21
aI35
aI21
aI6
aI0
aI1
aI0
aI1
aI30
aI40
aI1
aI1
aI2
aI1
aI0
aI0
aI17
aI0
aI0
aI0
aI0
aI0
aI0
aI0
aI0
aI0
aI0
aI0
aI0
asS'PursueBehavior'
p10
(lp11
I11
aI5
aI36
aI24
aI31
aI18
aI15
aI8
aI2
aI0
aI36
aI15
aI2
aI5
aI15
aI15
aI15
aI29
aI33
aI31
aI28
aI40
aI26
aI132
aI13
aI2
aI32
aI2
aI1
aI4
aI3
aI0
aI42
aI26
aI0
aI39
aI9
aI3
aI44
aI45
aI27
aI2
aI0
aI1
aI0
aI0
aI4
aI9
aI9
aI10
aI1
aI6
aI1
aI1
aI0
aI2
aI1
aI2
aI1
aI1
aI12
aI7
aI3
aI66
aI94
aI1
aI4
aI3
aI2
aI1
aI1
aI1
aI1
aI1
aI0
aI1
aI0
aI3
aI8
aI64
aI3
aI2
aI0
aI2
aI1
aI2
aI0
aI1
aI0
aI0
aI2
aI0
aI0
aI1
aI10
aI2
aI0
aI1
aI1
aI0
aI0
aI40
aI19
aI0
aI0
aI0
aI40
aI0
aI0
aI0
aI0
aI0
aI0
aI40
aI0
asS'SeekBehavior'
p12
(lp13
I20
aI23
aI27
aI0
aI1
aI1
aI1
aI1
aI0
aI0
aI14
aI72
aI19
aI60
aI16
aI6
aI0
aI0
aI1
aI1
aI0
aI0
aI1
aI24
aI25
aI17
aI4
aI38
aI43
aI51
aI30
aI12
aI66
aI7
aI9
aI132
aI59
aI32
aI90
aI3
aI0
aI3
aI1
aI2
aI2
aI6
aI40
aI36
aI19
aI34
aI1
aI10
aI0
aI0
aI1
aI0
aI1
aI1
aI6
aI28
aI12
aI43
aI16
aI28
aI156
aI3
aI30
aI49
aI49
aI78
aI0
aI3
aI5
aI5
aI19
aI24
aI5
aI1
aI6
aI16
aI12
aI5
aI1
aI3
aI4
aI2
aI5
aI12
aI4
aI15
aI23
aI29
aI31
aI17
aI46
aI58
aI46
aI38
aI17
aI17
aI16
aI58
aI58
aI33
aI19
aI27
aI112
aI20
aI64
aI39
aI74
aI54
aI13
aI58
aI27
assI2
(dp14
S'FleeBehavior'
p15
(lp16
I9
aI27
aI42
aI14
aI1
aI0
aI1
aI1
aI1
aI1
aI27
aI70
aI20
aI64
aI43
aI4
aI1
aI0
aI1
aI1
aI1
aI1
aI2
aI25
aI8
aI5
aI8
aI2
aI7
aI3
aI5
aI2
aI4
aI16
aI1
aI35
aI38
aI3
aI38
aI2
aI1
aI0
aI2
aI1
aI2
aI0
aI2
aI8
aI3
aI2
aI3
aI63
aI1
aI2
aI3
aI2
aI26
aI0
aI28
aI8
aI12
aI55
aI13
aI90
aI204
aI12
aI0
aI5
aI2
aI2
aI0
aI2
aI1
aI1
aI2
aI0
aI0
aI0
aI1
aI26
aI20
aI0
aI3
aI2
aI1
aI0
aI1
aI0
aI1
aI1
aI0
aI2
aI2
aI0
aI17
aI12
aI1
aI2
aI0
aI1
aI0
aI40
aI19
aI0
aI0
aI0
aI41
aI0
aI0
aI0
aI0
aI0
aI0
aI40
aI0
asS'PursueBehavior'
p17
(lp18
I6
aI2
aI44
aI1
aI0
aI1
aI0
aI2
aI0
aI1
aI29
aI24
aI1
aI8
aI6
aI6
aI0
aI3
aI1
aI4
aI1
aI4
aI1
aI12
aI26
aI13
aI28
aI37
aI37
aI51
aI19
aI9
aI69
aI18
aI7
aI136
aI23
aI29
aI91
aI0
aI1
aI1
aI1
aI1
aI2
aI1
aI2
aI4
aI33
aI39
aI23
aI26
aI19
aI15
aI22
aI16
aI7
aI23
aI75
aI40
aI32
aI68
aI6
aI6
aI48
aI17
aI0
aI23
aI1
aI2
aI3
aI0
aI1
aI4
aI1
aI3
aI1
aI1
aI0
aI7
aI23
aI2
aI2
aI1
aI1
aI3
aI1
aI2
aI0
aI0
aI0
aI0
aI0
aI0
aI6
aI34
aI0
aI1
aI0
aI0
aI0
aI0
aI18
aI0
aI0
aI0
aI0
aI0
aI0
aI0
aI0
aI0
aI0
aI0
aI0
asS'SeekBehavior'
p19
(lp20
I25
aI1
aI22
aI9
aI33
aI20
aI17
aI27
aI33
aI14
aI45
aI12
aI1
aI3
aI18
aI43
aI15
aI28
aI33
aI30
aI26
aI35
aI24
aI133
aI23
aI1
aI2
aI1
aI0
aI3
aI9
aI1
aI40
aI0
aI1
aI42
aI7
aI2
aI47
aI46
aI28
aI35
aI27
aI24
aI39
aI42
aI72
aI43
aI1
aI40
aI0
aI7
aI3
aI0
aI0
aI1
aI0
aI2
aI5
aI1
aI23
aI3
aI0
aI0
aI15
aI3
aI35
aI49
aI52
aI82
aI24
aI26
aI29
aI33
aI25
aI36
aI30
aI50
aI44
aI97
aI26
aI47
aI45
aI33
aI36
aI74
aI24
aI46
aI23
aI19
aI25
aI28
aI29
aI19
aI63
aI53
aI46
aI37
aI20
aI17
aI15
aI58
aI57
aI33
aI19
aI27
aI111
aI20
aI64
aI39
aI74
aI54
aI13
aI58
aI27
assI3
(dp21
S'FleeBehavior'
p22
(lp23
I3
aI2
aI49
aI1
aI2
aI0
aI1
aI1
aI2
aI0
aI16
aI75
aI2
aI47
aI9
aI16
aI1
aI2
aI4
aI20
aI26
aI38
aI25
aI87
aI18
aI16
aI31
aI32
aI43
aI56
aI31
aI11
aI52
aI4
aI1
aI72
aI31
aI3
aI46
aI6
aI2
aI4
aI4
aI5
aI0
aI2
aI20
aI5
aI2
aI31
aI2
aI12
aI4
aI2
aI3
aI1
aI2
aI12
aI25
aI15
aI19
aI41
aI0
aI23
aI164
aI19
aI26
aI51
aI15
aI9
aI1
aI2
aI1
aI1
aI1
aI1
aI4
aI2
aI1
aI8
aI7
aI18
aI16
aI34
aI34
aI48
aI8
aI24
aI10
aI15
aI21
aI29
aI30
aI16
aI42
aI56
aI17
aI17
aI7
aI13
aI6
aI22
aI40
aI30
aI6
aI6
aI35
aI8
aI14
aI1
aI5
aI4
aI1
aI10
aI0
asS'PursueBehavior'
p24
(lp25
I11
aI28
aI23
aI1
aI2
aI6
aI16
aI29
aI29
aI15
aI64
aI14
aI2
aI4
aI4
aI13
aI0
aI3
aI24
aI7
aI2
aI1
aI2
aI8
aI4
aI0
aI4
aI7
aI0
aI1
aI1
aI1
aI16
aI28
aI8
aI58
aI21
aI30
aI106
aI2
aI1
aI0
aI0
aI0
aI3
aI0
aI1
aI3
aI0
aI9
aI0
aI10
aI18
aI12
aI0
aI1
aI2
aI1
aI46
aI17
aI28
aI37
aI17
aI68
aI72
aI0
aI1
aI3
aI0
aI0
aI2
aI3
aI1
aI0
aI1
aI2
aI3
aI5
aI0
aI27
aI4
aI9
aI10
aI0
aI2
aI27
aI17
aI21
aI14
aI4
aI1
aI1
aI1
aI2
aI2
aI29
aI0
aI1
aI1
aI0
aI0
aI0
aI0
aI0
aI0
aI0
aI0
aI0
aI0
aI0
aI0
aI0
aI0
aI0
aI0
asS'SeekBehavior'
p26
(lp27
I26
aI0
aI36
aI22
aI30
aI15
aI1
aI0
aI3
aI1
aI21
aI17
aI18
aI24
aI54
aI24
aI15
aI26
aI7
aI8
aI0
aI1
aI0
aI75
aI35
aI3
aI3
aI1
aI0
aI0
aI0
aI0
aI45
aI2
aI0
aI83
aI16
aI1
aI23
aI39
aI27
aI31
aI26
aI21
aI40
aI41
aI55
aI47
aI35
aI41
aI24
aI74
aI1
aI2
aI21
aI17
aI29
aI12
aI37
aI17
aI19
aI48
aI1
aI5
aI30
aI12
aI7
aI23
aI39
aI77
aI23
aI23
aI29
aI36
aI25
aI36
aI24
aI44
aI43
aI94
aI58
aI22
aI24
aI2
aI2
aI2
aI1
aI3
aI0
aI1
aI3
aI0
aI0
aI1
aI41
aI14
aI30
aI21
aI12
aI4
aI9
aI76
aI54
aI3
aI13
aI21
aI117
aI12
aI50
aI38
aI69
aI50
aI11
aI88
aI27
assI4
(dp28
S'FleeBehavior'
p29
(lp30
I24
aI7
aI80
aI24
aI33
aI19
aI18
aI29
aI33
aI15
aI34
aI11
aI5
aI7
aI6
aI13
aI14
aI28
aI32
aI32
aI26
aI38
aI25
aI141
aI26
aI8
aI15
aI10
aI37
aI37
aI5
aI3
aI32
aI17
aI4
aI105
aI24
aI14
aI38
aI6
aI1
aI3
aI1
aI2
aI1
aI1
aI11
aI5
aI10
aI10
aI2
aI25
aI3
aI1
aI2
aI3
aI2
aI4
aI14
aI15
aI18
aI17
aI18
aI52
aI182
aI12
aI8
aI33
aI4
aI5
aI0
aI2
aI2
aI1
aI2
aI2
aI2
aI3
aI3
aI5
aI7
aI2
aI8
aI1
aI23
aI54
aI25
aI45
aI23
aI19
aI22
aI29
aI29
aI17
aI58
aI60
aI43
aI38
aI17
aI16
aI15
aI58
aI54
aI33
aI18
aI27
aI67
aI16
aI64
aI39
aI6
aI15
aI0
aI6
aI5
asS'PursueBehavior'
p31
(lp32
I3
aI0
aI9
aI0
aI1
aI1
aI0
aI0
aI0
aI1
aI24
aI35
aI17
aI58
aI50
aI15
aI1
aI2
aI0
aI1
aI1
aI2
aI1
aI12
aI18
aI11
aI9
aI1
aI1
aI3
aI23
aI8
aI75
aI7
aI5
aI58
aI13
aI6
aI102
aI40
aI27
aI31
aI28
aI22
aI40
aI39
aI61
aI27
aI27
aI54
aI24
aI70
aI0
aI2
aI1
aI0
aI0
aI0
aI6
aI0
aI10
aI79
aI0
aI42
aI54
aI7
aI23
aI31
aI48
aI80
aI24
aI26
aI26
aI35
aI25
aI35
aI27
aI44
aI41
aI120
aI62
aI38
aI6
aI3
aI1
aI21
aI1
aI1
aI1
aI1
aI2
aI1
aI1
aI1
aI26
aI8
aI3
aI0
aI0
aI0
aI0
aI40
aI20
aI0
aI0
aI0
aI40
aI0
aI0
aI0
aI0
aI0
aI0
aI3
aI0
asS'SeekBehavior'
p33
(lp34
I13
aI23
aI19
aI0
aI0
aI1
aI0
aI1
aI1
aI0
aI43
aI60
aI0
aI10
aI11
aI25
aI1
aI1
aI2
aI1
aI1
aI0
aI1
aI17
aI13
aI0
aI13
aI29
aI5
aI17
aI4
aI1
aI6
aI10
aI0
aI50
aI31
aI14
aI35
aI1
aI2
aI1
aI1
aI1
aI2
aI3
aI4
aI23
aI0
aI17
aI0
aI1
aI19
aI13
aI21
aI16
aI30
aI21
aI88
aI34
aI38
aI30
aI0
aI1
aI30
aI12
aI3
aI13
aI2
aI1
aI2
aI0
aI2
aI1
aI0
aI2
aI2
aI4
aI0
aI4
aI0
aI8
aI36
aI32
aI14
aI2
aI0
aI2
aI0
aI0
aI1
aI0
aI0
aI1
aI1
aI31
aI1
aI1
aI2
aI1
aI0
aI0
aI20
aI0
aI0
aI0
aI45
aI3
aI0
aI0
aI68
aI39
aI12
aI89
aI22
asss.