(dp0
S'learn_scores'
p1
(lp2
F-390.0
aF18.0
aF115.0
aF-404.0
aF-378.0
aF-352.0
aF-332.0
aF-432.0
aF-341.0
aF-416.0
aF-461.0
aF-265.0
aF-327.0
aF-305.0
aF-459.0
aF-434.0
aF-347.0
aF-246.0
aF-363.0
aF-342.0
aF-355.0
aF-393.0
aF215.0
aF-332.0
aF319.0
aF-300.0
aF-338.0
aF-235.0
aF-361.0
aF-423.0
aF-422.0
aF-72.0
aF-132.0
aF-317.0
aF-378.0
aF-374.0
aF-429.0
aF-324.0
aF-389.0
aF-429.0
aF205.0
aF-320.0
aF-150.0
aF-305.0
aF-83.0
aF-415.0
aF-305.0
aF-303.0
aF-412.0
aF-260.0
aF-417.0
aF-424.0
aF-446.0
aF-201.0
aF-387.0
aF-225.0
aF-269.0
aF-368.0
aF-448.0
aF-426.0
aF-251.0
aF-319.0
aF-338.0
aF-448.0
aF-424.0
aF-233.0
aF-368.0
aF1.0
aF-341.0
aF-121.0
aF-301.0
aF-406.0
aF-260.0
aF-31.0
aF-323.0
aF-257.0
aF-415.0
aF-277.0
aF-367.0
aF-150.0
aF-425.0
aF-359.0
aF-269.0
aF-394.0
aF-386.0
aF-247.0
aF-91.0
aF-19.0
aF8.0
aF-357.0
aF-293.0
aF-277.0
aF-419.0
aF-337.0
aF-331.0
aF-256.0
aF-419.0
aF-347.0
aF-414.0
aF-323.0
asS'test_scores'
p3
(lp4
F-394.0
aF-242.0
aF-305.0
aF-197.0
aF-408.0
aF7.0
aF-308.0
aF-382.0
aF-365.0
aF-186.0
aF-436.0
aF-369.0
aF-299.0
aF-434.0
aF-319.0
asS'behavior_count'
p5
(dp6
I1
(dp7
S'FleeBehavior'
p8
(lp9
I4
aI12
aI19
aI0
aI3
aI0
aI4
aI0
aI0
aI16
aI1
aI2
aI2
aI1
aI5
aI7
aI1
aI9
aI0
aI1
aI2
aI4
aI22
aI5
aI29
aI11
aI2
aI5
aI7
aI1
aI0
aI37
aI8
aI14
aI0
aI4
aI1
aI1
aI2
aI1
aI2
aI1
aI6
aI2
aI2
aI0
aI2
aI0
aI0
aI2
aI1
aI0
aI0
aI3
aI0
aI2
aI8
aI2
aI1
aI1
aI4
aI4
aI0
aI1
aI0
aI6
aI4
aI13
aI9
aI101
aI3
aI6
aI39
aI34
aI2
aI23
aI2
aI1
aI2
aI3
aI4
aI2
aI3
aI2
aI1
aI15
aI7
aI52
aI82
aI15
aI11
aI7
aI0
aI2
aI1
aI1
aI0
aI2
aI0
aI0
aI0
aI0
aI0
aI0
aI0
aI5
aI0
aI0
aI0
aI0
aI0
aI0
aI0
aI0
aI0
asS'PursueBehavior'
p10
(lp11
I4
aI42
aI46
aI0
aI0
aI0
aI0
aI0
aI1
aI4
aI3
aI7
aI24
aI23
aI40
aI24
aI31
aI29
aI23
aI22
aI41
aI58
aI74
aI90
aI65
aI4
aI32
aI142
aI45
aI10
aI11
aI50
aI91
aI14
aI18
aI75
aI19
aI51
aI16
aI16
aI57
aI28
aI45
aI4
aI16
aI4
aI4
aI3
aI0
aI5
aI1
aI3
aI0
aI1
aI0
aI8
aI66
aI1
aI1
aI2
aI5
aI6
aI0
aI2
aI1
aI9
aI2
aI5
aI7
aI23
aI10
aI3
aI87
aI32
aI11
aI47
aI4
aI1
aI0
aI6
aI0
aI3
aI1
aI1
aI0
aI3
aI9
aI2
aI8
aI15
aI10
aI3
aI0
aI0
aI1
aI3
aI0
aI1
aI10
aI0
aI0
aI0
aI0
aI0
aI0
aI0
aI0
aI0
aI0
aI0
aI0
aI0
aI0
aI0
aI0
asS'SeekBehavior'
p12
(lp13
I13
aI48
aI41
aI15
aI26
aI33
aI18
aI13
aI30
aI67
aI27
aI26
aI2
aI1
aI5
aI34
aI5
aI19
aI1
aI0
aI2
aI2
aI9
aI18
aI88
aI16
aI4
aI18
aI9
aI2
aI1
aI6
aI64
aI9
aI1
aI6
aI0
aI2
aI2
aI2
aI26
aI12
aI70
aI30
aI126
aI11
aI30
aI60
aI13
aI54
aI25
aI31
aI16
aI68
aI18
aI146
aI106
aI45
aI17
aI34
aI133
aI120
aI18
aI16
aI14
aI178
aI63
aI101
aI26
aI108
aI28
aI8
aI54
aI36
aI31
aI28
aI10
aI36
aI46
aI112
aI31
aI35
aI65
aI31
aI15
aI49
aI155
aI46
aI73
aI18
aI73
aI87
aI9
aI55
aI30
aI53
aI29
aI24
aI5
aI23
aI14
aI103
aI75
aI88
aI39
aI89
aI39
aI22
aI16
aI147
aI26
aI20
aI119
aI24
aI40
assI2
(dp14
S'FleeBehavior'
p15
(lp16
I4
aI25
aI75
aI0
aI1
aI0
aI2
aI1
aI1
aI1
aI6
aI1
aI1
aI0
aI1
aI4
aI3
aI37
aI1
aI0
aI1
aI4
aI31
aI1
aI42
aI1
aI2
aI40
aI2
aI0
aI0
aI3
aI5
aI4
aI0
aI4
aI0
aI1
aI0
aI0
aI13
aI2
aI38
aI5
aI46
aI1
aI0
aI0
aI1
aI1
aI0
aI1
aI1
aI3
aI1
aI6
aI41
aI2
aI0
aI0
aI39
aI36
aI0
aI0
aI1
aI7
aI3
aI28
aI2
aI43
aI1
aI0
aI40
aI37
aI5
aI41
aI2
aI15
aI18
aI42
aI4
aI6
aI4
aI0
aI0
aI5
aI40
aI12
aI72
aI39
aI38
aI36
aI0
aI0
aI1
aI0
aI1
aI2
aI1
aI0
aI0
aI35
aI0
aI0
aI0
aI26
aI0
aI0
aI0
aI39
aI0
aI0
aI0
aI0
aI0
asS'PursueBehavior'
p17
(lp18
I13
aI58
aI8
aI14
aI26
aI32
aI20
aI12
aI29
aI82
aI24
aI32
aI26
aI24
aI45
aI58
aI32
aI19
aI22
aI21
aI40
aI57
aI55
aI108
aI94
aI30
aI36
aI82
aI11
aI1
aI0
aI3
aI47
aI26
aI19
aI75
aI20
aI50
aI20
aI19
aI59
aI36
aI77
aI23
aI70
aI14
aI34
aI61
aI9
aI44
aI27
aI33
aI14
aI69
aI16
aI137
aI93
aI16
aI8
aI18
aI86
aI58
aI14
aI4
aI9
aI99
aI8
aI22
aI7
aI55
aI8
aI0
aI17
aI16
aI11
aI6
aI2
aI4
aI10
aI40
aI6
aI32
aI64
aI31
aI16
aI59
aI82
aI34
aI56
aI4
aI12
aI6
aI1
aI5
aI5
aI6
aI0
aI4
aI1
aI2
aI3
aI2
aI1
aI3
aI0
aI3
aI0
aI0
aI2
aI13
aI0
aI1
aI4
aI0
aI0
asS'SeekBehavior'
p19
(lp20
I4
aI19
aI22
aI1
aI1
aI0
aI0
aI0
aI1
aI3
aI1
aI2
aI1
aI1
aI3
aI3
aI2
aI1
aI1
aI1
aI4
aI3
aI19
aI4
aI46
aI0
aI0
aI43
aI48
aI12
aI12
aI86
aI111
aI7
aI0
aI6
aI0
aI3
aI0
aI0
aI13
aI2
aI5
aI7
aI28
aI0
aI1
aI2
aI3
aI15
aI0
aI0
aI1
aI0
aI0
aI13
aI46
aI30
aI10
aI18
aI16
aI36
aI4
aI15
aI4
aI87
aI58
aI69
aI33
aI133
aI32
aI16
aI123
aI49
aI28
aI50
aI11
aI19
aI20
aI38
aI25
aI2
aI1
aI3
aI0
aI3
aI49
aI54
aI34
aI4
aI43
aI55
aI8
aI52
aI26
aI50
aI28
aI21
aI13
aI21
aI11
aI66
aI74
aI84
aI39
aI65
aI38
aI22
aI14
aI95
aI26
aI18
aI115
aI24
aI39
asss.