(dp0
S'learn_scores'
p1
(lp2
F-419.0
aF482.0
aF-220.0
aF-401.0
aF-288.0
aF-347.0
aF-216.0
aF-329.0
aF-338.0
aF-334.0
aF732.0
aF1739.0
aF-357.0
aF527.0
aF-92.0
aF1747.0
aF362.0
aF-231.0
aF273.0
aF1948.0
aF183.0
aF-302.0
aF-356.0
aF89.0
aF1549.0
aF-392.0
aF-74.0
aF459.0
aF-320.0
aF1540.0
aF-401.0
aF-239.0
aF-314.0
aF-311.0
aF481.0
aF1533.0
aF724.0
aF72.0
aF1740.0
aF-207.0
aF-78.0
aF-428.0
aF-133.0
aF-347.0
aF270.0
aF1534.0
aF522.0
aF1534.0
aF303.0
aF-347.0
aF245.0
aF668.0
aF21.0
aF511.0
aF-324.0
aF20.0
aF79.0
aF1543.0
aF177.0
aF-352.0
aF-306.0
aF-311.0
aF312.0
aF1751.0
aF-307.0
aF1340.0
aF-303.0
aF1942.0
aF-195.0
aF267.0
aF-88.0
aF1340.0
aF-186.0
aF-323.0
aF331.0
aF-5.0
aF-392.0
aF1547.0
aF86.0
aF29.0
aF633.0
aF-212.0
aF-234.0
aF-365.0
aF-338.0
aF110.0
aF-334.0
aF-392.0
aF264.0
aF1345.0
aF-311.0
aF322.0
aF-356.0
aF-374.0
aF1539.0
aF1742.0
aF55.0
aF1747.0
aF617.0
aF71.0
asS'test_scores'
p3
(lp4
F-316.0
aF-357.0
aF1547.0
aF-410.0
aF119.0
aF-8.0
aF1739.0
aF495.0
aF-237.0
aF-419.0
aF279.0
aF-320.0
aF99.0
aF207.0
aF-142.0
asS'behavior_count'
p5
(dp6
I1
(dp7
S'FleeBehavior'
p8
(lp9
I4
aI36
aI7
aI1
aI1
aI2
aI3
aI0
aI0
aI1
aI11
aI70
aI15
aI58
aI49
aI79
aI15
aI1
aI74
aI43
aI3
aI1
aI0
aI4
aI14
aI0
aI5
aI37
aI1
aI43
aI1
aI0
aI0
aI0
aI1
aI6
aI3
aI6
aI4
aI7
aI37
aI0
aI2
aI0
aI3
aI3
aI3
aI7
aI13
aI14
aI11
aI5
aI9
aI32
aI0
aI3
aI3
aI6
aI24
aI0
aI2
aI0
aI2
aI4
aI0
aI8
aI2
aI39
aI1
aI34
aI1
aI69
aI13
aI1
aI78
aI42
aI0
aI65
aI14
aI1
aI46
aI0
aI0
aI3
aI0
aI10
aI1
aI1
aI2
aI1
aI1
aI3
aI1
aI1
aI4
aI33
aI1
aI62
aI43
aI50
aI24
aI15
aI118
aI4
aI75
aI27
aI74
aI109
aI30
aI6
aI98
aI15
aI15
aI52
aI36
asS'PursueBehavior'
p10
(lp11
I3
aI31
aI33
aI11
aI25
aI16
aI34
aI19
aI18
aI22
aI104
aI43
aI1
aI22
aI3
aI40
aI4
aI0
aI5
aI4
aI16
aI1
aI2
aI3
aI3
aI0
aI4
aI4
aI1
aI27
aI0
aI1
aI0
aI0
aI6
aI70
aI58
aI29
aI21
aI3
aI2
aI0
aI1
aI0
aI13
aI2
aI4
aI6
aI2
aI1
aI34
aI49
aI50
aI37
aI23
aI65
aI78
aI117
aI28
aI22
aI24
aI20
aI84
aI109
aI25
aI41
aI21
aI65
aI34
aI55
aI26
aI58
aI22
aI22
aI40
aI22
aI13
aI52
aI40
aI59
aI57
aI32
aI32
aI12
aI17
aI36
aI21
aI11
aI73
aI121
aI20
aI110
aI14
aI13
aI123
aI93
aI74
aI59
aI55
aI24
aI3
aI3
aI5
aI6
aI6
aI11
aI57
aI14
aI7
aI3
aI23
aI5
aI36
aI11
aI6
asS'SeekBehavior'
p12
(lp13
I2
aI41
aI1
aI0
aI2
aI0
aI0
aI0
aI1
aI1
aI3
aI18
aI1
aI4
aI1
aI4
aI40
aI31
aI38
aI75
aI48
aI21
aI14
aI45
aI104
aI12
aI46
aI61
aI19
aI60
aI11
aI28
aI24
aI21
aI112
aI61
aI56
aI14
aI105
aI28
aI9
aI8
aI50
aI18
aI104
aI131
aI111
aI123
aI32
aI3
aI31
aI49
aI1
aI11
aI1
aI2
aI1
aI4
aI11
aI1
aI0
aI1
aI2
aI6
aI2
aI81
aI0
aI24
aI1
aI4
aI2
aI3
aI1
aI1
aI2
aI2
aI0
aI6
aI0
aI2
aI5
aI0
aI3
aI1
aI2
aI4
aI2
aI1
aI2
aI3
aI0
aI6
aI1
aI1
aI4
aI2
aI0
aI2
aI6
aI6
aI0
aI0
aI0
aI0
aI0
aI0
aI0
aI2
aI0
aI0
aI0
aI0
aI0
aI1
aI0
assI2
(dp14
S'FleeBehavior'
p15
(lp16
I4
aI20
aI2
aI2
aI1
aI1
aI2
aI1
aI0
aI1
aI8
aI15
aI14
aI59
aI44
aI28
aI20
aI21
aI10
aI19
aI59
aI18
aI5
aI35
aI29
aI1
aI0
aI23
aI1
aI42
aI0
aI6
aI14
aI16
aI92
aI77
aI78
aI11
aI43
aI1
aI9
aI0
aI45
aI12
aI111
aI73
aI85
aI60
aI6
aI2
aI31
aI39
aI1
aI25
aI0
aI5
aI32
aI54
aI13
aI2
aI1
aI0
aI40
aI44
aI0
aI9
aI1
aI38
aI9
aI32
aI6
aI71
aI3
aI1
aI63
aI24
aI0
aI58
aI3
aI0
aI18
aI1
aI1
aI1
aI2
aI9
aI0
aI0
aI2
aI5
aI1
aI6
aI0
aI0
aI11
aI45
aI10
aI37
aI35
aI44
aI10
aI5
aI74
aI1
aI33
aI9
aI41
aI75
aI17
aI1
aI64
aI1
aI22
aI37
aI17
asS'PursueBehavior'
p17
(lp18
I2
aI30
aI1
aI1
aI0
aI2
aI0
aI0
aI1
aI0
aI17
aI100
aI3
aI19
aI6
aI80
aI20
aI7
aI2
aI31
aI8
aI2
aI6
aI14
aI63
aI11
aI46
aI60
aI14
aI38
aI1
aI1
aI0
aI0
aI4
aI7
aI27
aI17
aI66
aI33
aI35
aI5
aI8
aI2
aI3
aI7
aI11
aI68
aI38
aI7
aI25
aI39
aI4
aI12
aI2
aI3
aI16
aI27
aI41
aI15
aI8
aI8
aI28
aI26
aI1
aI36
aI0
aI26
aI7
aI21
aI12
aI18
aI15
aI19
aI27
aI31
aI2
aI20
aI7
aI29
aI33
aI3
aI0
aI0
aI0
aI23
aI2
aI0
aI35
aI71
aI0
aI71
aI1
aI0
aI19
aI34
aI37
aI42
aI46
aI11
aI0
aI0
aI22
aI0
aI16
aI6
aI4
aI22
aI0
aI0
aI5
aI0
aI0
aI17
aI0
asS'SeekBehavior'
p19
(lp20
I3
aI58
aI38
aI9
aI27
aI15
aI35
aI18
aI18
aI23
aI93
aI16
aI0
aI5
aI3
aI15
aI19
aI4
aI105
aI72
aI0
aI3
aI5
aI3
aI29
aI0
aI9
aI19
aI6
aI50
aI11
aI22
aI10
aI5
aI23
aI53
aI11
aI20
aI21
aI4
aI4
aI3
aI0
aI4
aI6
aI56
aI22
aI8
aI3
aI9
aI20
aI25
aI55
aI42
aI22
aI62
aI34
aI46
aI9
aI6
aI17
aI13
aI20
aI49
aI26
aI85
aI22
aI64
aI20
aI40
aI10
aI41
aI18
aI4
aI29
aI11
aI11
aI45
aI44
aI33
aI56
aI28
aI34
aI15
aI17
aI18
aI22
aI13
aI40
aI49
aI20
aI42
aI15
aI15
aI101
aI49
aI28
aI44
aI23
aI25
aI17
aI13
aI27
aI9
aI32
aI23
aI86
aI28
aI20
aI8
aI52
aI19
aI29
aI10
aI25
asss.