(dp0
S'learn_scores'
p1
(lp2
F-350.0
aF-366.0
aF-448.0
aF-247.0
aF216.0
aF-421.0
aF-405.0
aF-396.0
aF-371.0
aF-473.0
aF-417.0
aF-437.0
aF-415.0
aF-472.0
aF-391.0
aF-354.0
aF-443.0
aF-405.0
aF-399.0
aF-419.0
aF-398.0
aF-364.0
aF-431.0
aF-370.0
aF-369.0
aF-422.0
aF-366.0
aF-417.0
aF-408.0
aF133.0
aF-437.0
aF-400.0
aF140.0
aF-465.0
aF-296.0
aF-261.0
aF475.0
aF-286.0
aF-352.0
aF49.0
aF-82.0
aF-478.0
aF-443.0
aF-372.0
aF7.0
aF-388.0
aF-285.0
aF-413.0
aF-389.0
aF-421.0
aF-423.0
aF-398.0
aF-431.0
aF-424.0
aF-377.0
aF-384.0
aF-465.0
aF-361.0
aF258.0
aF-404.0
aF-461.0
aF-434.0
aF-337.0
aF-431.0
aF-427.0
aF-358.0
aF-401.0
aF-429.0
aF-366.0
aF-447.0
aF-278.0
aF-415.0
aF-438.0
aF-418.0
aF-413.0
aF-421.0
aF-180.0
aF-367.0
aF-430.0
aF-372.0
aF-411.0
aF-399.0
aF-407.0
aF-417.0
aF95.0
aF-334.0
aF-468.0
aF-393.0
aF-440.0
aF-931.0
aF-271.0
aF-485.0
aF-408.0
aF-384.0
aF-383.0
aF-79.0
aF-423.0
aF-381.0
aF-400.0
aF-459.0
asS'test_scores'
p3
(lp4
F282.0
aF-397.0
aF-442.0
aF-422.0
aF-390.0
aF-310.0
aF-418.0
aF-208.0
aF-391.0
aF-421.0
aF-315.0
aF-458.0
aF244.0
aF-424.0
aF-364.0
asS'behavior_count'
p5
(dp6
I1
(dp7
S'FleeBehavior'
p8
(lp9
I23
aI22
aI0
aI1
aI16
aI1
aI2
aI2
aI1
aI0
aI1
aI1
aI0
aI1
aI0
aI1
aI0
aI2
aI2
aI0
aI0
aI0
aI0
aI1
aI0
aI0
aI1
aI0
aI2
aI1
aI1
aI1
aI5
aI0
aI5
aI10
aI90
aI35
aI59
aI56
aI12
aI18
aI13
aI22
aI57
aI26
aI62
aI22
aI27
aI21
aI23
aI27
aI20
aI40
aI26
aI41
aI23
aI30
aI54
aI53
aI11
aI24
aI34
aI20
aI27
aI46
aI21
aI18
aI25
aI17
aI63
aI29
aI25
aI28
aI23
aI20
aI86
aI26
aI10
aI22
aI39
aI27
aI18
aI34
aI119
aI33
aI14
aI30
aI30
aI21
aI82
aI15
aI25
aI22
aI32
aI76
aI19
aI69
aI27
aI29
aI111
aI27
aI13
aI12
aI41
aI40
aI19
aI59
aI41
aI31
aI86
aI19
aI46
aI15
aI35
asS'PursueBehavior'
p10
(lp11
I19
aI1
aI0
aI6
aI59
aI19
aI13
aI34
aI40
aI14
aI16
aI26
aI44
aI20
aI90
aI52
aI14
aI23
aI17
aI18
aI18
aI24
aI21
aI48
aI28
aI22
aI53
aI18
aI26
aI65
aI27
aI29
aI91
aI5
aI11
aI55
aI55
aI1
aI4
aI16
aI51
aI1
aI0
aI0
aI35
aI1
aI1
aI1
aI2
aI1
aI1
aI1
aI2
aI1
aI0
aI1
aI0
aI0
aI14
aI0
aI0
aI0
aI1
aI0
aI0
aI0
aI1
aI0
aI0
aI0
aI2
aI6
aI2
aI1
aI0
aI0
aI3
aI0
aI0
aI1
aI1
aI0
aI0
aI1
aI2
aI1
aI3
aI4
aI0
aI0
aI28
aI0
aI3
aI1
aI0
aI37
aI1
aI1
aI2
aI1
aI6
aI0
aI0
aI0
aI0
aI0
aI0
aI0
aI0
aI0
aI0
aI0
aI30
aI0
aI0
asS'SeekBehavior'
p12
(lp13
I8
aI14
aI9
aI50
aI20
aI1
aI1
aI1
aI0
aI0
aI0
aI0
aI1
aI2
aI2
aI1
aI0
aI1
aI1
aI2
aI1
aI0
aI1
aI1
aI2
aI1
aI3
aI0
aI1
aI1
aI0
aI1
aI5
aI10
aI50
aI7
aI31
aI40
aI0
aI49
aI69
aI0
aI0
aI0
aI2
aI2
aI3
aI1
aI0
aI0
aI0
aI0
aI0
aI4
aI1
aI2
aI3
aI2
aI5
aI2
aI1
aI1
aI2
aI1
aI0
aI3
aI0
aI2
aI2
aI1
aI3
aI1
aI1
aI0
aI1
aI1
aI1
aI1
aI1
aI0
aI1
aI2
aI0
aI2
aI24
aI1
aI2
aI0
aI1
aI0
aI2
aI0
aI1
aI1
aI2
aI7
aI3
aI1
aI1
aI0
aI31
aI0
aI0
aI0
aI0
aI0
aI0
aI0
aI0
aI0
aI0
aI0
aI10
aI0
aI0
assI2
(dp14
S'FleeBehavior'
p15
(lp16
I35
aI26
aI2
aI9
aI24
aI2
aI14
aI36
aI29
aI6
aI0
aI1
aI0
aI1
aI11
aI5
aI1
aI0
aI0
aI0
aI1
aI1
aI0
aI2
aI2
aI0
aI2
aI0
aI0
aI2
aI10
aI1
aI36
aI0
aI17
aI23
aI40
aI2
aI4
aI15
aI45
aI2
aI0
aI0
aI7
aI4
aI3
aI2
aI0
aI1
aI0
aI1
aI0
aI0
aI0
aI3
aI1
aI1
aI14
aI0
aI0
aI2
aI3
aI1
aI1
aI3
aI0
aI0
aI0
aI0
aI1
aI2
aI0
aI3
aI1
aI2
aI0
aI1
aI0
aI1
aI2
aI2
aI0
aI1
aI22
aI0
aI2
aI2
aI0
aI1
aI11
aI1
aI2
aI1
aI0
aI8
aI1
aI3
aI1
aI7
aI0
aI0
aI0
aI0
aI0
aI0
aI0
aI0
aI0
aI0
aI0
aI0
aI0
aI0
aI0
asS'PursueBehavior'
p17
(lp18
I10
aI5
aI6
aI39
aI49
aI18
aI1
aI1
aI9
aI7
aI15
aI25
aI43
aI22
aI78
aI47
aI11
aI26
aI18
aI14
aI16
aI21
aI21
aI48
aI27
aI10
aI38
aI17
aI29
aI63
aI3
aI16
aI38
aI15
aI32
aI17
aI51
aI28
aI42
aI45
aI52
aI4
aI3
aI16
aI27
aI6
aI38
aI9
aI12
aI4
aI4
aI6
aI6
aI19
aI14
aI14
aI9
aI10
aI26
aI36
aI11
aI14
aI22
aI13
aI15
aI19
aI6
aI7
aI8
aI8
aI13
aI23
aI25
aI26
aI20
aI19
aI64
aI26
aI11
aI22
aI39
aI27
aI18
aI34
aI100
aI34
aI17
aI32
aI31
aI18
aI69
aI13
aI27
aI22
aI33
aI74
aI20
aI65
aI28
aI23
aI118
aI27
aI13
aI12
aI41
aI40
aI19
aI58
aI41
aI31
aI76
aI18
aI59
aI15
aI35
asS'SeekBehavior'
p19
(lp20
I5
aI6
aI1
aI9
aI22
aI1
aI0
aI0
aI3
aI0
aI2
aI1
aI2
aI0
aI2
aI2
aI1
aI0
aI2
aI6
aI1
aI2
aI1
aI0
aI1
aI13
aI17
aI0
aI0
aI2
aI15
aI14
aI27
aI0
aI17
aI31
aI85
aI46
aI17
aI61
aI35
aI13
aI10
aI6
aI60
aI19
aI25
aI13
aI17
aI17
aI20
aI21
aI16
aI25
aI13
aI27
aI16
aI21
aI33
aI19
aI1
aI9
aI12
aI7
aI11
aI27
aI16
aI12
aI18
aI10
aI54
aI11
aI3
aI0
aI3
aI0
aI26
aI0
aI0
aI0
aI0
aI0
aI0
aI2
aI23
aI1
aI0
aI0
aI0
aI2
aI32
aI1
aI0
aI1
aI1
aI38
aI2
aI3
aI1
aI0
aI30
aI0
aI0
aI0
aI0
aI0
aI0
aI0
aI0
aI0
aI10
aI0
aI27
aI0
aI0
assI3
(dp21
S'FleeBehavior'
p22
(lp23
I19
aI20
aI1
aI3
aI22
aI1
aI0
aI1
aI4
aI0
aI1
aI6
aI34
aI2
aI22
aI1
aI10
aI26
aI15
aI4
aI0
aI1
aI0
aI1
aI2
aI1
aI2
aI0
aI2
aI3
aI11
aI29
aI35
aI4
aI24
aI17
aI53
aI8
aI11
aI49
aI66
aI3
aI0
aI1
aI6
aI2
aI1
aI0
aI3
aI0
aI0
aI1
aI3
aI2
aI2
aI2
aI1
aI1
aI5
aI2
aI0
aI1
aI2
aI0
aI1
aI1
aI2
aI0
aI0
aI1
aI1
aI2
aI3
aI1
aI0
aI1
aI1
aI1
aI0
aI1
aI2
aI1
aI3
aI3
aI4
aI4
aI1
aI0
aI0
aI0
aI4
aI1
aI2
aI0
aI1
aI7
aI2
aI36
aI11
aI4
aI45
aI0
aI0
aI0
aI0
aI2
aI0
aI10
aI0
aI0
aI11
aI0
aI2
aI0
aI0
asS'PursueBehavior'
p24
(lp25
I14
aI12
aI7
aI42
aI39
aI0
aI0
aI1
aI2
aI0
aI2
aI1
aI2
aI0
aI1
aI3
aI1
aI0
aI2
aI1
aI0
aI2
aI0
aI2
aI2
aI0
aI4
aI0
aI0
aI2
aI1
aI0
aI9
aI11
aI39
aI17
aI80
aI62
aI2
aI41
aI26
aI12
aI13
aI20
aI67
aI26
aI65
aI22
aI25
aI18
aI24
aI27
aI19
aI42
aI23
aI41
aI25
aI30
aI56
aI52
aI12
aI24
aI34
aI21
aI24
aI45
aI18
aI19
aI25
aI16
aI66
aI33
aI24
aI27
aI24
aI20
aI86
aI26
aI10
aI21
aI36
aI28
aI13
aI32
aI103
aI29
aI16
aI33
aI30
aI20
aI98
aI14
aI26
aI24
aI32
aI89
aI20
aI35
aI17
aI25
aI102
aI27
aI13
aI12
aI41
aI38
aI19
aI48
aI41
aI31
aI75
aI18
aI49
aI15
aI34
asS'SeekBehavior'
p26
(lp27
I17
aI4
aI0
aI12
aI33
aI20
aI15
aI35
aI35
aI13
aI14
aI20
aI9
aI21
aI68
aI50
aI2
aI0
aI3
aI14
aI18
aI21
aI22
aI47
aI25
aI21
aI51
aI17
aI27
aI62
aI16
aI1
aI57
aI0
aI3
aI37
aI43
aI6
aI49
aI31
aI40
aI3
aI0
aI1
aI21
aI0
aI0
aI2
aI1
aI3
aI0
aI0
aI0
aI0
aI2
aI1
aI0
aI0
aI12
aI0
aI0
aI0
aI1
aI0
aI2
aI2
aI1
aI0
aI1
aI1
aI1
aI0
aI1
aI0
aI0
aI0
aI3
aI0
aI0
aI0
aI3
aI0
aI1
aI2
aI38
aI2
aI2
aI1
aI0
aI1
aI10
aI0
aI1
aI0
aI1
aI23
aI1
aI0
aI2
aI1
aI1
aI0
aI0
aI0
aI0
aI0
aI0
aI0
aI0
aI0
aI0
aI0
aI35
aI0
aI0
assI4
(dp28
S'FleeBehavior'
p29
(lp30
I15
aI0
aI1
aI1
aI28
aI18
aI13
aI32
aI40
aI13
aI16
aI26
aI39
aI9
aI24
aI43
aI0
aI3
aI7
aI17
aI13
aI5
aI17
aI49
aI14
aI5
aI47
aI12
aI5
aI56
aI3
aI2
aI30
aI0
aI7
aI36
aI59
aI11
aI8
aI9
aI19
aI9
aI5
aI11
aI80
aI8
aI1
aI0
aI2
aI3
aI19
aI28
aI19
aI36
aI12
aI3
aI6
aI16
aI52
aI4
aI1
aI2
aI2
aI0
aI1
aI6
aI1
aI3
aI1
aI2
aI10
aI1
aI1
aI3
aI8
aI1
aI2
aI2
aI1
aI0
aI0
aI3
aI0
aI2
aI8
aI0
aI1
aI2
aI0
aI0
aI7
aI0
aI2
aI1
aI6
aI10
aI2
aI9
aI1
aI0
aI4
aI1
aI0
aI0
aI2
aI0
aI0
aI2
aI0
aI1
aI0
aI0
aI3
aI1
aI0
asS'PursueBehavior'
p31
(lp32
I30
aI35
aI7
aI43
aI15
aI2
aI2
aI3
aI1
aI0
aI0
aI1
aI5
aI11
aI65
aI8
aI12
aI23
aI12
aI1
aI4
aI19
aI2
aI0
aI15
aI16
aI8
aI4
aI22
aI8
aI24
aI26
aI63
aI14
aI58
aI28
aI19
aI30
aI50
aI31
aI72
aI9
aI8
aI11
aI6
aI20
aI60
aI21
aI26
aI17
aI5
aI0
aI1
aI5
aI15
aI39
aI19
aI13
aI19
aI50
aI10
aI21
aI35
aI19
aI26
aI42
aI20
aI15
aI24
aI15
aI55
aI33
aI27
aI23
aI13
aI20
aI84
aI25
aI9
aI22
aI39
aI26
aI16
aI34
aI133
aI33
aI17
aI29
aI30
aI20
aI100
aI13
aI26
aI20
aI27
aI69
aI20
aI60
aI28
aI27
aI104
aI26
aI12
aI12
aI38
aI40
aI18
aI56
aI41
aI30
aI85
aI18
aI77
aI13
aI34
asS'SeekBehavior'
p33
(lp34
I5
aI1
aI0
aI13
aI51
aI1
aI0
aI1
aI0
aI0
aI1
aI0
aI1
aI2
aI2
aI3
aI1
aI0
aI1
aI1
aI1
aI0
aI2
aI1
aI0
aI1
aI1
aI1
aI1
aI3
aI1
aI2
aI7
aI1
aI1
aI7
aI97
aI35
aI4
aI81
aI41
aI0
aI0
aI0
aI7
aI0
aI4
aI2
aI1
aI1
aI0
aI0
aI2
aI3
aI0
aI2
aI1
aI2
aI2
aI0
aI1
aI1
aI0
aI2
aI0
aI0
aI0
aI1
aI1
aI1
aI3
aI1
aI0
aI2
aI3
aI0
aI4
aI0
aI0
aI0
aI2
aI0
aI1
aI1
aI4
aI1
aI0
aI2
aI0
aI1
aI4
aI2
aI1
aI3
aI0
aI40
aI1
aI2
aI1
aI2
aI40
aI0
aI0
aI0
aI0
aI0
aI0
aI0
aI0
aI0
aI0
aI0
aI6
aI0
aI0
asss.