(dp0
S'learn_scores'
p1
(lp2
F-257.0
aF1629.0
aF135.0
aF-270.0
aF-330.0
aF47.0
aF-280.0
aF-387.0
aF1702.0
aF-392.0
aF490.0
aF473.0
aF1930.0
aF453.0
aF201.0
aF579.0
aF378.0
aF376.0
aF1730.0
aF224.0
aF696.0
aF201.0
aF-295.0
aF1738.0
aF-383.0
aF872.0
aF1734.0
aF-299.0
aF-373.0
aF1512.0
aF1315.0
aF447.0
aF87.0
aF208.0
aF516.0
aF-84.0
aF650.0
aF-179.0
aF1897.0
aF8.0
aF56.0
aF-288.0
aF-383.0
aF2300.0
aF-287.0
aF-61.0
aF-332.0
aF-51.0
aF1532.0
aF294.0
aF413.0
aF224.0
aF-160.0
aF-393.0
aF21.0
aF1046.0
aF169.0
aF602.0
aF1497.0
aF-322.0
aF325.0
aF1685.0
aF-103.0
aF60.0
aF96.0
aF1744.0
aF623.0
aF468.0
aF987.0
aF1518.0
aF273.0
aF15.0
aF116.0
aF326.0
aF721.0
aF-351.0
aF-357.0
aF299.0
aF216.0
aF24.0
aF-361.0
aF1509.0
aF112.0
aF-56.0
aF416.0
aF-316.0
aF701.0
aF1907.0
aF220.0
aF69.0
aF1927.0
aF432.0
aF1909.0
aF-359.0
aF564.0
aF1924.0
aF105.0
aF-297.0
aF511.0
aF-359.0
asS'test_scores'
p3
(lp4
F874.0
aF232.0
aF490.0
aF2099.0
aF-159.0
aF240.0
aF331.0
aF104.0
aF374.0
aF141.0
aF1821.0
aF139.0
aF211.0
aF695.0
aF1718.0
asS'behavior_count'
p5
(dp6
I1
(dp7
S'FleeBehavior'
p8
(lp9
I10
aI74
aI42
aI23
aI23
aI29
aI1
aI1
aI53
aI9
aI12
aI25
aI97
aI38
aI144
aI70
aI3
aI39
aI37
aI14
aI15
aI39
aI0
aI6
aI4
aI46
aI16
aI0
aI3
aI8
aI20
aI43
aI3
aI9
aI9
aI47
aI72
aI2
aI107
aI2
aI18
aI0
aI2
aI37
aI1
aI9
aI26
aI61
aI112
aI26
aI32
aI15
aI4
aI20
aI35
aI57
aI2
aI5
aI15
aI12
aI45
aI44
aI7
aI3
aI3
aI7
aI91
aI94
aI87
aI12
aI32
aI26
aI30
aI33
aI13
aI2
aI1
aI19
aI6
aI6
aI1
aI3
aI3
aI3
aI17
aI2
aI15
aI19
aI3
aI0
aI6
aI19
aI8
aI9
aI53
aI53
aI3
aI18
aI10
aI2
aI0
aI0
aI0
aI0
aI0
aI0
aI0
aI0
aI0
aI0
aI0
aI0
aI0
aI0
aI0
asS'PursueBehavior'
p10
(lp11
I8
aI58
aI3
aI2
aI4
aI27
aI38
aI17
aI78
aI4
aI61
aI29
aI36
aI48
aI8
aI33
aI36
aI68
aI100
aI21
aI65
aI3
aI0
aI40
aI0
aI32
aI8
aI11
aI0
aI9
aI62
aI55
aI5
aI6
aI6
aI2
aI17
aI19
aI13
aI80
aI66
aI12
aI0
aI59
aI0
aI3
aI1
aI3
aI15
aI6
aI13
aI126
aI37
aI0
aI12
aI58
aI56
aI72
aI28
aI19
aI26
aI40
aI7
aI5
aI11
aI48
aI24
aI3
aI7
aI42
aI13
aI11
aI33
aI3
aI4
aI1
aI2
aI16
aI4
aI7
aI0
aI12
aI10
aI13
aI17
aI0
aI11
aI52
aI45
aI30
aI96
aI41
aI85
aI0
aI6
aI27
aI17
aI6
aI49
aI6
aI2
aI0
aI0
aI0
aI0
aI0
aI0
aI0
aI0
aI0
aI0
aI0
aI0
aI0
aI0
asS'SeekBehavior'
p12
(lp13
I20
aI109
aI11
aI16
aI4
aI48
aI2
aI0
aI37
aI0
aI7
aI4
aI7
aI22
aI48
aI49
aI4
aI8
aI3
aI12
aI75
aI48
aI26
aI86
aI10
aI61
aI112
aI29
aI20
aI141
aI73
aI96
aI76
aI118
aI80
aI6
aI42
aI29
aI53
aI1
aI51
aI17
aI12
aI74
aI27
aI29
aI6
aI8
aI11
aI15
aI33
aI25
aI0
aI3
aI2
aI30
aI24
aI32
aI130
aI2
aI35
aI101
aI20
aI83
aI91
aI71
aI13
aI5
aI9
aI98
aI22
aI9
aI12
aI28
aI113
aI19
aI25
aI17
aI94
aI44
aI21
aI146
aI46
aI51
aI41
aI24
aI114
aI92
aI43
aI22
aI41
aI9
aI68
aI11
aI18
aI66
aI46
aI24
aI121
aI12
aI175
aI89
aI171
aI171
aI59
aI120
aI100
aI117
aI117
aI110
aI249
aI82
aI49
aI85
aI152
assI2
(dp14
S'FleeBehavior'
p15
(lp16
I15
aI17
aI7
aI1
aI0
aI19
aI0
aI0
aI65
aI13
aI29
aI16
aI38
aI50
aI39
aI66
aI2
aI3
aI31
aI3
aI10
aI13
aI23
aI93
aI0
aI35
aI6
aI27
aI1
aI3
aI11
aI37
aI47
aI99
aI4
aI8
aI93
aI22
aI57
aI44
aI27
aI0
aI2
aI4
aI1
aI5
aI0
aI2
aI6
aI14
aI41
aI8
aI35
aI1
aI2
aI34
aI2
aI10
aI16
aI0
aI1
aI50
aI0
aI18
aI23
aI38
aI62
aI12
aI51
aI121
aI4
aI0
aI5
aI15
aI77
aI2
aI1
aI2
aI30
aI10
aI0
aI9
aI3
aI4
aI9
aI4
aI49
aI40
aI38
aI15
aI69
aI21
aI64
aI11
aI22
aI60
aI37
aI0
aI43
aI0
aI0
aI0
aI0
aI0
aI0
aI0
aI0
aI0
aI0
aI0
aI0
aI0
aI0
aI0
aI0
asS'PursueBehavior'
p17
(lp18
I7
aI99
aI11
aI32
aI0
aI34
aI39
aI17
aI71
aI0
aI50
aI34
aI30
aI24
aI7
aI10
aI22
aI106
aI57
aI23
aI77
aI5
aI2
aI30
aI1
aI21
aI115
aI1
aI0
aI20
aI74
aI67
aI32
aI10
aI81
aI17
aI14
aI18
aI64
aI7
aI68
aI27
aI11
aI116
aI18
aI15
aI13
aI43
aI73
aI0
aI23
aI51
aI0
aI1
aI16
aI41
aI57
aI65
aI93
aI12
aI59
aI29
aI18
aI23
aI15
aI37
aI24
aI7
aI12
aI4
aI51
aI32
aI34
aI27
aI40
aI10
aI7
aI31
aI3
aI6
aI1
aI43
aI29
aI25
aI35
aI1
aI51
aI73
aI40
aI35
aI58
aI35
aI72
aI1
aI25
aI47
aI0
aI2
aI7
aI0
aI0
aI0
aI0
aI0
aI0
aI0
aI0
aI0
aI0
aI0
aI0
aI0
aI0
aI0
aI0
asS'SeekBehavior'
p19
(lp20
I15
aI125
aI38
aI8
aI31
aI51
aI2
aI1
aI32
aI0
aI1
aI8
aI72
aI34
aI154
aI76
aI19
aI6
aI52
aI20
aI67
aI71
aI1
aI9
aI13
aI83
aI15
aI12
aI22
aI135
aI70
aI90
aI5
aI24
aI10
aI30
aI24
aI10
aI52
aI32
aI40
aI2
aI1
aI50
aI9
aI21
aI20
aI27
aI59
aI32
aI14
aI107
aI6
aI21
aI31
aI70
aI22
aI34
aI64
aI21
aI45
aI106
aI15
aI50
aI66
aI51
aI42
aI83
aI40
aI27
aI12
aI14
aI36
aI22
aI13
aI10
aI20
aI19
aI71
aI41
aI21
aI109
aI27
aI38
aI31
aI21
aI39
aI50
aI13
aI1
aI16
aI13
aI25
aI8
aI30
aI39
aI28
aI46
aI130
aI19
aI177
aI89
aI171
aI171
aI59
aI120
aI100
aI117
aI117
aI109
aI249
aI82
aI49
aI85
aI152
assI3
(dp21
S'FleeBehavior'
p22
(lp23
I13
aI47
aI28
aI15
aI4
aI27
aI7
aI1
aI46
aI0
aI12
aI11
aI32
aI13
aI47
aI81
aI23
aI11
aI21
aI2
aI8
aI35
aI23
aI87
aI0
aI17
aI10
aI36
aI22
aI61
aI65
aI24
aI5
aI3
aI3
aI7
aI14
aI2
aI12
aI3
aI6
aI0
aI0
aI8
aI2
aI1
aI0
aI2
aI51
aI3
aI13
aI12
aI1
aI1
aI1
aI30
aI4
aI4
aI6
aI2
aI9
aI43
aI1
aI3
aI4
aI13
aI24
aI40
aI33
aI12
aI17
aI11
aI47
aI52
aI97
aI10
aI0
aI19
aI36
aI11
aI0
aI54
aI25
aI5
aI14
aI2
aI12
aI12
aI14
aI5
aI8
aI3
aI36
aI0
aI8
aI28
aI37
aI0
aI30
aI0
aI20
aI0
aI0
aI0
aI0
aI0
aI0
aI0
aI0
aI0
aI0
aI0
aI0
aI0
aI0
asS'PursueBehavior'
p24
(lp25
I16
aI65
aI14
aI25
aI26
aI52
aI5
aI16
aI99
aI11
aI67
aI45
aI59
aI42
aI96
aI51
aI1
aI6
aI22
aI42
aI57
aI4
aI1
aI20
aI1
aI40
aI2
aI2
aI0
aI8
aI65
aI52
aI60
aI39
aI22
aI14
aI2
aI0
aI47
aI69
aI52
aI4
aI1
aI32
aI18
aI29
aI1
aI2
aI10
aI0
aI27
aI73
aI6
aI18
aI36
aI56
aI68
aI94
aI127
aI13
aI36
aI42
aI13
aI24
aI39
aI56
aI70
aI51
aI40
aI103
aI32
aI31
aI13
aI3
aI7
aI2
aI1
aI10
aI3
aI1
aI0
aI5
aI4
aI5
aI4
aI1
aI6
aI3
aI30
aI2
aI57
aI53
aI57
aI15
aI33
aI32
aI16
aI1
aI28
aI3
aI0
aI0
aI0
aI0
aI0
aI0
aI0
aI0
aI0
aI0
aI0
aI0
aI0
aI0
aI0
asS'SeekBehavior'
p26
(lp27
I8
aI129
aI13
aI0
aI0
aI25
aI29
aI0
aI23
aI2
aI1
aI1
aI49
aI52
aI56
aI20
aI19
aI98
aI97
aI2
aI89
aI50
aI2
aI25
aI12
aI82
aI124
aI1
aI1
aI89
aI25
aI118
aI19
aI91
aI70
aI34
aI114
aI48
aI114
aI11
aI77
aI25
aI12
aI130
aI7
aI11
aI32
aI67
aI77
aI43
aI38
aI81
aI34
aI4
aI12
aI59
aI9
aI11
aI40
aI18
aI60
aI100
aI19
aI64
aI61
aI57
aI33
aI11
aI30
aI37
aI18
aI3
aI14
aI9
aI25
aI9
aI27
aI23
aI65
aI45
aI21
aI102
aI30
aI57
aI57
aI23
aI121
aI148
aI46
aI44
aI78
aI13
aI68
aI5
aI35
aI86
aI12
aI47
aI121
aI16
aI157
aI89
aI170
aI171
aI59
aI120
aI100
aI116
aI117
aI109
aI249
aI82
aI49
aI85
aI152
assI4
(dp28
S'FleeBehavior'
p29
(lp30
I7
aI134
aI16
aI7
aI26
aI48
aI0
aI1
aI36
aI9
aI33
aI7
aI25
aI37
aI30
aI98
aI20
aI3
aI10
aI3
aI3
aI2
aI1
aI27
aI0
aI5
aI41
aI1
aI1
aI16
aI31
aI50
aI44
aI63
aI28
aI0
aI16
aI1
aI20
aI1
aI21
aI3
aI0
aI5
aI22
aI32
aI22
aI55
aI67
aI24
aI8
aI8
aI2
aI2
aI1
aI26
aI39
aI45
aI23
aI2
aI8
aI8
aI2
aI1
aI3
aI3
aI35
aI34
aI13
aI43
aI1
aI1
aI6
aI11
aI28
aI3
aI1
aI2
aI19
aI6
aI0
aI52
aI27
aI3
aI4
aI0
aI3
aI13
aI23
aI3
aI35
aI46
aI35
aI0
aI6
aI10
aI25
aI1
aI10
aI1
aI10
aI0
aI0
aI0
aI0
aI0
aI0
aI0
aI0
aI0
aI0
aI0
aI0
aI0
aI0
asS'PursueBehavior'
p31
(lp32
I8
aI29
aI1
aI2
aI3
aI38
aI40
aI16
aI81
aI4
aI43
aI42
aI38
aI33
aI7
aI29
aI14
aI14
aI80
aI42
aI63
aI30
aI24
aI84
aI3
aI41
aI26
aI29
aI22
aI114
aI90
aI47
aI13
aI67
aI44
aI48
aI88
aI11
aI50
aI41
aI79
aI4
aI5
aI53
aI5
aI7
aI10
aI14
aI67
aI8
aI39
aI151
aI38
aI19
aI46
aI105
aI16
aI40
aI114
aI21
aI35
aI70
aI6
aI18
aI36
aI57
aI34
aI23
aI13
aI46
aI11
aI14
aI4
aI21
aI54
aI12
aI23
aI17
aI57
aI42
aI20
aI100
aI21
aI35
aI42
aI26
aI117
aI54
aI21
aI6
aI53
aI17
aI97
aI15
aI33
aI67
aI19
aI19
aI70
aI9
aI23
aI2
aI1
aI1
aI0
aI0
aI0
aI0
aI0
aI0
aI0
aI0
aI0
aI0
aI0
asS'SeekBehavior'
p33
(lp34
I22
aI78
aI38
aI31
aI1
aI17
aI1
aI0
aI51
aI0
aI4
aI8
aI77
aI37
aI162
aI24
aI8
aI98
aI50
aI1
aI88
aI57
aI1
aI21
aI10
aI92
aI69
aI9
aI0
aI28
aI34
aI96
aI27
aI3
aI22
aI7
aI26
aI37
aI103
aI40
aI34
aI22
aI8
aI112
aI0
aI2
aI0
aI2
aI4
aI14
aI30
aI7
aI1
aI2
aI2
aI14
aI26
aI24
aI36
aI10
aI62
aI107
aI25
aI72
aI65
aI66
aI58
aI45
aI77
aI63
aI55
aI30
aI64
aI32
aI47
aI6
aI4
aI32
aI28
aI8
aI1
aI9
aI10
aI28
aI29
aI0
aI19
aI96
aI46
aI42
aI55
aI5
aI29
aI5
aI37
aI69
aI21
aI27
aI99
aI9
aI143
aI87
aI169
aI170
aI59
aI120
aI99
aI116
aI116
aI109
aI249
aI82
aI49
aI85
aI152
asss.