(dp0
S'learn_scores'
p1
(lp2
F-348.0
aF-355.0
aF-379.0
aF-44.0
aF-348.0
aF-324.0
aF-252.0
aF-400.0
aF-396.0
aF-354.0
aF-357.0
aF-319.0
aF-326.0
aF-435.0
aF98.0
aF-419.0
aF-397.0
aF-357.0
aF-428.0
aF-280.0
aF-408.0
aF-454.0
aF-413.0
aF-446.0
aF-386.0
aF-386.0
aF-335.0
aF-428.0
aF-342.0
aF-350.0
aF-438.0
aF-366.0
aF-405.0
aF-376.0
aF-412.0
aF-287.0
aF-354.0
aF-396.0
aF-403.0
aF-392.0
aF-344.0
aF-428.0
aF-399.0
aF125.0
aF-411.0
aF-387.0
aF-271.0
aF-303.0
aF-273.0
aF-419.0
aF-365.0
aF-331.0
aF-276.0
aF-410.0
aF-419.0
aF48.0
aF-251.0
aF-409.0
aF-448.0
aF-327.0
aF-448.0
aF-433.0
aF-338.0
aF-364.0
aF-410.0
aF-438.0
aF258.0
aF-434.0
aF-427.0
aF-359.0
aF-405.0
aF-255.0
aF-437.0
aF-427.0
aF-271.0
aF-323.0
aF55.0
aF-348.0
aF-376.0
aF-445.0
aF-260.0
aF-7.0
aF-427.0
aF-342.0
aF-424.0
aF-445.0
aF-349.0
aF-419.0
aF-387.0
aF-331.0
aF-308.0
aF-400.0
aF-395.0
aF-347.0
aF-238.0
aF-327.0
aF-319.0
aF-312.0
aF-443.0
aF-423.0
asS'test_scores'
p3
(lp4
F-368.0
aF-345.0
aF-353.0
aF-386.0
aF-318.0
aF-429.0
aF65.0
aF-315.0
aF-431.0
aF-449.0
aF-375.0
aF-330.0
aF-395.0
aF-420.0
aF-359.0
asS'behavior_count'
p5
(dp6
I1
(dp7
S'FleeBehavior'
p8
(lp9
I9
aI0
aI6
aI24
aI0
aI1
aI8
aI43
aI0
aI2
aI1
aI4
aI2
aI0
aI11
aI0
aI0
aI0
aI1
aI2
aI1
aI1
aI1
aI0
aI1
aI0
aI0
aI0
aI2
aI10
aI8
aI0
aI0
aI2
aI0
aI2
aI1
aI1
aI1
aI2
aI7
aI0
aI0
aI17
aI0
aI6
aI8
aI28
aI36
aI0
aI0
aI1
aI2
aI0
aI0
aI30
aI42
aI0
aI1
aI0
aI1
aI1
aI2
aI2
aI0
aI0
aI23
aI0
aI1
aI1
aI0
aI1
aI1
aI1
aI1
aI0
aI9
aI5
aI16
aI3
aI34
aI31
aI4
aI1
aI0
aI1
aI1
aI1
aI0
aI2
aI0
aI1
aI0
aI3
aI3
aI0
aI1
aI0
aI1
aI0
aI0
aI0
aI0
aI0
aI0
aI0
aI0
aI0
aI0
aI0
aI0
aI0
aI0
aI0
aI0
asS'PursueBehavior'
p10
(lp11
I15
aI34
aI43
aI56
aI19
aI24
aI42
aI2
aI3
aI25
aI29
aI1
aI3
aI0
aI30
aI2
aI0
aI0
aI0
aI3
aI0
aI1
aI0
aI1
aI0
aI0
aI3
aI0
aI0
aI2
aI3
aI0
aI0
aI1
aI0
aI3
aI2
aI0
aI0
aI0
aI1
aI0
aI0
aI29
aI0
aI3
aI2
aI2
aI3
aI0
aI0
aI1
aI0
aI0
aI0
aI15
aI2
aI0
aI0
aI1
aI3
aI0
aI0
aI1
aI0
aI0
aI21
aI1
aI1
aI0
aI0
aI2
aI2
aI0
aI4
aI1
aI48
aI11
aI2
aI10
aI30
aI76
aI3
aI2
aI1
aI1
aI0
aI0
aI1
aI0
aI0
aI1
aI0
aI1
aI0
aI0
aI3
aI0
aI4
aI1
aI0
aI0
aI0
aI0
aI0
aI5
aI38
aI9
aI14
aI0
aI0
aI8
aI5
aI8
aI4
asS'SeekBehavior'
p12
(lp13
I4
aI2
aI1
aI25
aI0
aI0
aI2
aI5
aI14
aI18
aI8
aI44
aI32
aI15
aI31
aI28
aI18
aI27
aI28
aI46
aI17
aI22
aI13
aI25
aI45
aI16
aI53
aI8
aI50
aI28
aI17
aI27
aI16
aI13
aI12
aI42
aI21
aI16
aI13
aI10
aI36
aI9
aI20
aI49
aI21
aI38
aI22
aI14
aI25
aI9
aI25
aI39
aI24
aI11
aI10
aI88
aI27
aI19
aI18
aI36
aI14
aI23
aI26
aI22
aI11
aI8
aI89
aI23
aI16
aI29
aI16
aI63
aI15
aI17
aI56
aI23
aI28
aI22
aI18
aI3
aI26
aI30
aI20
aI30
aI13
aI14
aI18
aI8
aI16
aI70
aI29
aI28
aI15
aI43
aI56
aI27
aI25
aI33
aI49
aI12
aI29
aI25
aI23
aI17
aI49
aI25
aI27
aI27
aI28
aI19
aI15
aI42
aI11
aI13
aI15
assI2
(dp14
S'FleeBehavior'
p15
(lp16
I9
aI0
aI0
aI26
aI0
aI0
aI1
aI0
aI0
aI4
aI2
aI1
aI1
aI0
aI25
aI0
aI0
aI0
aI1
aI3
aI0
aI2
aI0
aI1
aI1
aI0
aI3
aI0
aI4
aI1
aI0
aI1
aI0
aI0
aI0
aI6
aI15
aI16
aI12
aI11
aI38
aI2
aI3
aI19
aI0
aI0
aI2
aI0
aI1
aI1
aI0
aI2
aI0
aI0
aI0
aI12
aI38
aI1
aI0
aI2
aI0
aI0
aI1
aI0
aI0
aI0
aI15
aI2
aI0
aI1
aI0
aI4
aI2
aI1
aI4
aI1
aI3
aI1
aI3
aI1
aI5
aI38
aI11
aI3
aI0
aI0
aI2
aI0
aI1
aI0
aI0
aI1
aI1
aI2
aI3
aI0
aI2
aI1
aI1
aI0
aI0
aI0
aI0
aI0
aI0
aI0
aI0
aI0
aI0
aI0
aI0
aI0
aI0
aI0
aI0
asS'PursueBehavior'
p17
(lp18
I14
aI34
aI38
aI57
aI19
aI22
aI48
aI36
aI17
aI38
aI29
aI47
aI28
aI14
aI41
aI27
aI18
aI27
aI26
aI48
aI18
aI22
aI14
aI23
aI44
aI14
aI9
aI4
aI13
aI6
aI21
aI9
aI0
aI1
aI5
aI12
aI9
aI0
aI2
aI1
aI3
aI6
aI17
aI48
aI20
aI46
aI28
aI17
aI49
aI8
aI16
aI27
aI15
aI7
aI10
aI90
aI26
aI17
aI19
aI33
aI17
aI24
aI24
aI23
aI11
aI8
aI98
aI22
aI18
aI27
aI14
aI62
aI15
aI17
aI56
aI23
aI64
aI25
aI14
aI8
aI39
aI34
aI7
aI28
aI14
aI14
aI17
aI9
aI16
aI70
aI29
aI28
aI14
aI45
aI55
aI27
aI27
aI29
aI50
aI13
aI10
aI6
aI4
aI3
aI14
aI4
aI1
aI0
aI0
aI0
aI0
aI0
aI0
aI2
aI0
asS'SeekBehavior'
p19
(lp20
I5
aI2
aI12
aI22
aI0
aI3
aI3
aI14
aI0
aI3
aI6
aI1
aI8
aI1
aI6
aI3
aI0
aI0
aI1
aI0
aI0
aI0
aI0
aI2
aI1
aI2
aI44
aI4
aI35
aI33
aI7
aI17
aI16
aI15
aI7
aI29
aI0
aI1
aI0
aI0
aI3
aI1
aI0
aI28
aI1
aI1
aI2
aI27
aI14
aI0
aI9
aI12
aI11
aI4
aI0
aI31
aI7
aI1
aI0
aI2
aI1
aI0
aI3
aI2
aI0
aI0
aI20
aI0
aI0
aI1
aI1
aI0
aI0
aI0
aI1
aI0
aI18
aI12
aI19
aI7
aI46
aI65
aI9
aI2
aI0
aI2
aI0
aI0
aI0
aI2
aI0
aI1
aI0
aI0
aI1
aI0
aI0
aI3
aI3
aI0
aI19
aI19
aI19
aI13
aI34
aI26
aI64
aI36
aI42
aI19
aI15
aI50
aI16
aI19
aI19
assI3
(dp21
S'FleeBehavior'
p22
(lp23
I7
aI0
aI0
aI15
aI0
aI2
aI4
aI1
aI0
aI2
aI1
aI2
aI1
aI0
aI13
aI1
aI1
aI4
aI28
aI45
aI18
aI21
aI12
aI24
aI43
aI16
aI48
aI8
aI51
aI31
aI24
aI26
aI14
aI13
aI11
aI43
aI24
aI17
aI14
aI10
aI38
aI7
aI18
aI74
aI0
aI7
aI26
aI7
aI44
aI2
aI9
aI38
aI24
aI10
aI9
aI98
aI60
aI1
aI1
aI2
aI0
aI1
aI0
aI3
aI1
aI2
aI8
aI0
aI0
aI1
aI0
aI6
aI4
aI1
aI3
aI0
aI25
aI8
aI2
aI1
aI20
aI77
aI23
aI26
aI12
aI14
aI18
aI8
aI16
aI69
aI24
aI27
aI15
aI43
aI56
aI25
aI26
aI32
aI49
aI13
aI29
aI25
aI23
aI16
aI48
aI29
aI64
aI36
aI42
aI19
aI6
aI0
aI0
aI0
aI0
asS'PursueBehavior'
p24
(lp25
I16
aI34
aI12
aI44
aI19
aI17
aI39
aI1
aI0
aI2
aI9
aI41
aI0
aI1
aI24
aI2
aI0
aI0
aI0
aI3
aI0
aI1
aI0
aI1
aI2
aI0
aI5
aI0
aI0
aI6
aI3
aI1
aI1
aI0
aI1
aI2
aI0
aI0
aI0
aI1
aI3
aI1
aI1
aI11
aI0
aI1
aI2
aI5
aI15
aI7
aI15
aI2
aI1
aI0
aI0
aI19
aI6
aI0
aI2
aI0
aI0
aI0
aI1
aI0
aI1
aI0
aI24
aI0
aI0
aI2
aI2
aI35
aI12
aI16
aI52
aI22
aI55
aI30
aI33
aI14
aI65
aI47
aI1
aI2
aI0
aI1
aI0
aI1
aI1
aI1
aI2
aI1
aI0
aI3
aI1
aI1
aI2
aI0
aI2
aI0
aI0
aI0
aI0
aI0
aI0
aI0
aI1
aI0
aI0
aI0
aI0
aI0
aI0
aI0
aI0
asS'SeekBehavior'
p26
(lp27
I5
aI2
aI37
aI46
aI0
aI5
aI9
aI48
aI16
aI40
aI27
aI6
aI35
aI14
aI35
aI26
aI17
aI23
aI0
aI3
aI0
aI2
aI1
aI1
aI1
aI0
aI2
aI0
aI1
aI3
aI1
aI0
aI1
aI3
aI0
aI2
aI0
aI0
aI0
aI1
aI3
aI0
aI0
aI10
aI21
aI39
aI4
aI31
aI5
aI0
aI1
aI1
aI1
aI0
aI1
aI16
aI5
aI18
aI16
aI35
aI18
aI22
aI27
aI22
aI9
aI6
aI101
aI24
aI18
aI26
aI13
aI24
aI1
aI1
aI6
aI1
aI5
aI0
aI1
aI0
aI5
aI13
aI3
aI4
aI2
aI1
aI1
aI0
aI0
aI1
aI2
aI2
aI0
aI1
aI2
aI1
aI1
aI1
aI2
aI0
aI0
aI0
aI0
aI0
aI0
aI0
aI0
aI0
aI0
aI0
aI9
aI50
aI16
aI20
aI19
assI4
(dp28
S'FleeBehavior'
p29
(lp30
I8
aI6
aI6
aI30
aI1
aI1
aI3
aI1
aI0
aI2
aI2
aI0
aI2
aI0
aI6
aI0
aI1
aI2
aI2
aI2
aI0
aI1
aI1
aI0
aI3
aI0
aI2
aI0
aI2
aI3
aI2
aI11
aI0
aI0
aI0
aI4
aI13
aI11
aI2
aI1
aI6
aI0
aI0
aI24
aI10
aI22
aI28
aI33
aI48
aI0
aI0
aI1
aI0
aI1
aI0
aI52
aI55
aI7
aI10
aI12
aI4
aI0
aI1
aI0
aI1
aI0
aI28
aI2
aI0
aI1
aI0
aI3
aI1
aI0
aI1
aI4
aI6
aI1
aI0
aI0
aI15
aI53
aI17
aI1
aI1
aI2
aI0
aI0
aI1
aI2
aI1
aI0
aI1
aI1
aI13
aI1
aI1
aI0
aI1
aI0
aI0
aI0
aI0
aI0
aI0
aI0
aI0
aI0
aI0
aI0
aI0
aI0
aI0
aI0
aI0
asS'PursueBehavior'
p31
(lp32
I14
aI23
aI11
aI41
aI0
aI4
aI36
aI0
aI0
aI2
aI13
aI37
aI5
aI15
aI43
aI29
aI16
aI24
aI26
aI31
aI8
aI2
aI1
aI0
aI2
aI0
aI0
aI0
aI0
aI4
aI1
aI1
aI0
aI0
aI0
aI1
aI1
aI0
aI0
aI0
aI4
aI4
aI6
aI33
aI2
aI4
aI1
aI3
aI2
aI1
aI0
aI1
aI0
aI0
aI0
aI11
aI4
aI1
aI0
aI1
aI0
aI0
aI1
aI0
aI0
aI0
aI4
aI1
aI9
aI7
aI1
aI8
aI6
aI2
aI20
aI1
aI30
aI1
aI1
aI3
aI18
aI17
aI1
aI11
aI12
aI7
aI11
aI4
aI11
aI37
aI5
aI14
aI3
aI12
aI17
aI3
aI6
aI0
aI6
aI8
aI1
aI0
aI0
aI0
aI0
aI0
aI0
aI0
aI0
aI0
aI0
aI0
aI0
aI0
aI0
asS'SeekBehavior'
p33
(lp34
I6
aI6
aI32
aI34
aI17
aI19
aI13
aI49
aI16
aI40
aI22
aI12
aI29
aI0
aI23
aI0
aI0
aI1
aI0
aI18
aI10
aI21
aI11
aI26
aI41
aI16
aI53
aI8
aI50
aI33
aI25
aI14
aI16
aI16
aI12
aI42
aI10
aI6
aI12
aI11
aI34
aI4
aI13
aI38
aI9
aI21
aI2
aI7
aI14
aI8
aI25
aI39
aI26
aI9
aI10
aI69
aI12
aI11
aI9
aI24
aI14
aI23
aI26
aI25
aI10
aI8
aI100
aI21
aI9
aI21
aI14
aI54
aI10
aI16
aI40
aI18
aI49
aI36
aI35
aI12
aI57
aI67
aI9
aI20
aI1
aI7
aI8
aI5
aI5
aI32
aI22
aI16
aI11
aI34
aI28
aI23
aI22
aI33
aI46
aI5
aI28
aI25
aI23
aI16
aI48
aI29
aI65
aI35
aI41
aI19
aI15
aI50
aI16
aI20
aI19
asss.