(dp0
S'learn_scores'
p1
(lp2
F-299.0
aF-272.0
aF-218.0
aF-275.0
aF-241.0
aF115.0
aF-268.0
aF-179.0
aF-57.0
aF-132.0
aF-284.0
aF100.0
aF65.0
aF64.0
aF49.0
aF-199.0
aF-204.0
aF-87.0
aF-99.0
aF-118.0
aF-201.0
aF111.0
aF-28.0
aF-216.0
aF118.0
aF-233.0
aF429.0
aF-235.0
aF-129.0
aF13.0
aF-295.0
aF-314.0
aF-23.0
aF54.0
aF-35.0
aF-299.0
aF-362.0
aF-242.0
aF-283.0
aF-332.0
aF191.0
aF-31.0
aF-397.0
aF-162.0
aF-160.0
aF631.0
aF-173.0
aF-165.0
aF4.0
aF45.0
aF-42.0
aF-362.0
aF-320.0
aF-337.0
aF-193.0
aF-72.0
aF-338.0
aF300.0
aF-18.0
aF-354.0
aF-153.0
aF-101.0
aF249.0
aF-234.0
aF26.0
aF-93.0
aF-337.0
aF-178.0
aF93.0
aF223.0
aF60.0
aF-43.0
aF-248.0
aF-231.0
aF-421.0
aF-389.0
aF169.0
aF-315.0
aF-277.0
aF-203.0
aF-292.0
aF-47.0
aF-373.0
aF-12.0
aF-295.0
aF263.0
aF90.0
aF-156.0
aF29.0
aF-30.0
aF-204.0
aF-229.0
aF237.0
aF-373.0
aF325.0
aF-390.0
aF293.0
aF-415.0
aF-120.0
aF74.0
asS'test_scores'
p3
(lp4
F-350.0
aF-163.0
aF-402.0
aF-128.0
aF-156.0
aF-71.0
aF-28.0
aF112.0
aF-134.0
aF64.0
aF-28.0
aF-227.0
aF-117.0
aF-17.0
aF-268.0
asS'behavior_count'
p5
(dp6
I1
(dp7
S'FleeBehavior'
p8
(lp9
I7
aI1
aI4
aI15
aI4
aI86
aI4
aI10
aI20
aI105
aI3
aI5
aI7
aI19
aI7
aI28
aI1
aI1
aI47
aI181
aI19
aI14
aI181
aI94
aI55
aI4
aI129
aI2
aI7
aI49
aI21
aI3
aI10
aI77
aI88
aI78
aI22
aI85
aI111
aI82
aI117
aI45
aI3
aI5
aI6
aI38
aI10
aI25
aI33
aI73
aI11
aI2
aI1
aI6
aI105
aI11
aI2
aI45
aI45
aI40
aI159
aI60
aI128
aI3
aI8
aI8
aI2
aI4
aI17
aI15
aI6
aI153
aI6
aI96
aI11
aI3
aI9
aI5
aI11
aI33
aI1
aI47
aI13
aI54
aI1
aI249
aI50
aI110
aI438
aI82
aI13
aI17
aI149
aI10
aI177
aI64
aI47
aI54
aI49
aI105
aI0
aI0
aI0
aI40
aI0
aI0
aI40
aI17
aI0
aI22
aI20
aI0
aI40
aI38
aI0
asS'PursueBehavior'
p10
(lp11
I12
aI40
aI60
aI30
aI34
aI76
aI48
aI34
aI62
aI147
aI6
aI77
aI116
aI204
aI42
aI6
aI37
aI53
aI286
aI212
aI53
aI233
aI135
aI18
aI152
aI78
aI383
aI72
aI158
aI165
aI41
aI132
aI50
aI371
aI177
aI56
aI20
aI101
aI32
aI18
aI102
aI239
aI29
aI63
aI98
aI361
aI22
aI97
aI102
aI171
aI186
aI42
aI48
aI116
aI804
aI49
aI41
aI81
aI91
aI31
aI126
aI33
aI262
aI77
aI128
aI194
aI12
aI107
aI277
aI147
aI88
aI446
aI70
aI206
aI25
aI33
aI107
aI114
aI48
aI129
aI41
aI220
aI29
aI64
aI34
aI147
aI87
aI89
aI384
aI153
aI116
aI49
aI115
aI34
aI97
aI61
aI172
aI11
aI77
aI208
aI25
aI9
aI21
aI46
aI86
aI73
aI102
aI100
aI182
aI182
aI146
aI29
aI246
aI43
aI44
asS'SeekBehavior'
p12
(lp13
I21
aI2
aI5
aI90
aI4
aI134
aI6
aI105
aI165
aI81
aI85
aI39
aI33
aI93
aI132
aI65
aI27
aI3
aI56
aI45
aI0
aI43
aI52
aI5
aI5
aI2
aI50
aI2
aI5
aI43
aI3
aI10
aI24
aI18
aI11
aI6
aI1
aI7
aI10
aI3
aI31
aI167
aI25
aI95
aI7
aI170
aI11
aI3
aI21
aI22
aI6
aI9
aI1
aI5
aI135
aI82
aI55
aI75
aI53
aI4
aI28
aI9
aI161
aI5
aI39
aI42
aI14
aI27
aI133
aI236
aI156
aI294
aI3
aI9
aI45
aI14
aI106
aI26
aI79
aI1
aI1
aI10
aI2
aI4
aI1
aI12
aI23
aI8
aI70
aI26
aI56
aI3
aI10
aI0
aI12
aI6
aI69
aI10
aI5
aI344
aI16
aI85
aI52
aI22
aI140
aI239
aI66
aI2
aI183
aI123
aI93
aI68
aI192
aI96
aI45
assI2
(dp14
S'FleeBehavior'
p15
(lp16
I9
aI4
aI12
aI20
aI3
aI66
aI0
aI10
aI47
aI67
aI36
aI26
aI19
aI16
aI31
aI3
aI6
aI2
aI137
aI89
aI5
aI43
aI114
aI2
aI35
aI57
aI82
aI56
aI134
aI77
aI44
aI86
aI7
aI217
aI78
aI31
aI15
aI134
aI15
aI22
aI71
aI141
aI1
aI7
aI8
aI151
aI12
aI81
aI132
aI179
aI67
aI0
aI0
aI8
aI30
aI12
aI22
aI106
aI69
aI3
aI11
aI34
aI156
aI14
aI42
aI12
aI1
aI3
aI103
aI187
aI93
aI284
aI37
aI75
aI3
aI3
aI27
aI5
aI6
aI7
aI1
aI6
aI3
aI4
aI0
aI9
aI5
aI39
aI103
aI66
aI3
aI4
aI82
aI1
aI52
aI8
aI42
aI0
aI5
aI67
aI0
aI0
aI0
aI39
aI0
aI0
aI39
aI12
aI0
aI31
aI18
aI0
aI20
aI25
aI0
asS'PursueBehavior'
p17
(lp18
I12
aI32
aI42
aI93
aI38
aI148
aI5
aI97
aI144
aI123
aI24
aI28
aI105
aI271
aI79
aI94
aI58
aI55
aI240
aI101
aI23
aI135
aI206
aI113
aI156
aI21
aI312
aI12
aI32
aI76
aI18
aI52
aI61
aI169
aI137
aI99
aI10
aI51
aI136
aI55
aI165
aI169
aI55
aI144
aI94
aI389
aI28
aI39
aI19
aI67
aI39
aI24
aI45
aI109
aI651
aI102
aI47
aI71
aI108
aI67
aI280
aI11
aI297
aI70
aI111
aI172
aI27
aI111
aI303
aI194
aI93
aI474
aI35
aI173
aI54
aI43
aI54
aI47
aI49
aI62
aI38
aI75
aI22
aI43
aI14
aI208
aI84
aI145
aI637
aI158
aI177
aI63
aI180
aI41
aI208
aI97
aI236
aI49
aI121
aI473
aI40
aI68
aI72
aI53
aI221
aI259
aI97
aI76
aI348
aI222
aI204
aI42
aI417
aI152
aI88
asS'SeekBehavior'
p19
(lp20
I19
aI7
aI15
aI22
aI1
aI81
aI53
aI42
aI56
aI143
aI34
aI67
aI32
aI29
aI71
aI2
aI0
aI0
aI12
aI248
aI44
aI112
aI48
aI2
aI21
aI6
aI168
aI7
aI3
aI104
aI3
aI6
aI15
aI80
aI61
aI9
aI17
aI8
aI2
aI25
aI14
aI141
aI1
aI12
aI8
aI29
aI3
aI5
aI5
aI19
aI96
aI29
aI5
aI10
aI363
aI28
aI29
aI24
aI12
aI5
aI22
aI56
aI98
aI1
aI22
aI60
aI0
aI24
aI21
aI17
aI64
aI135
aI7
aI63
aI24
aI3
aI140
aI93
aI83
aI94
aI3
aI196
aI18
aI75
aI21
aI190
aI71
aI22
aI151
aI37
aI4
aI2
aI12
aI2
aI26
aI25
aI10
aI26
aI4
aI117
aI0
aI26
aI0
aI16
aI5
aI52
aI72
aI31
aI16
aI73
aI37
aI55
aI40
aI0
aI0
asss.