(dp0
S'learn_scores'
p1
(lp2
F-360.0
aF100.0
aF-316.0
aF-269.0
aF-242.0
aF-281.0
aF-65.0
aF-422.0
aF-394.0
aF-445.0
aF-383.0
aF-315.0
aF-247.0
aF-375.0
aF-436.0
aF-368.0
aF-397.0
aF-175.0
aF10.0
aF-369.0
aF-355.0
aF-462.0
aF-353.0
aF-303.0
aF-419.0
aF-325.0
aF-445.0
aF-426.0
aF-445.0
aF-434.0
aF-462.0
aF66.0
aF32.0
aF-350.0
aF-246.0
aF-253.0
aF-239.0
aF226.0
aF-208.0
aF-361.0
aF97.0
aF-363.0
aF-412.0
aF233.0
aF-288.0
aF-336.0
aF-143.0
aF-359.0
aF-273.0
aF-424.0
aF-378.0
aF-330.0
aF-190.0
aF-325.0
aF-387.0
aF-387.0
aF-369.0
aF-356.0
aF-356.0
aF-393.0
aF-246.0
aF-320.0
aF-387.0
aF-368.0
aF-276.0
aF-244.0
aF-441.0
aF-268.0
aF-439.0
aF-380.0
aF-434.0
aF-384.0
aF133.0
aF-360.0
aF-203.0
aF-411.0
aF-124.0
aF-221.0
aF-314.0
aF-396.0
aF-100.0
aF-207.0
aF-305.0
aF-401.0
aF-307.0
aF-393.0
aF-442.0
aF-301.0
aF-452.0
aF-10.0
aF-337.0
aF74.0
aF-412.0
aF-347.0
aF186.0
aF-282.0
aF-423.0
aF-484.0
aF-394.0
aF-451.0
asS'test_scores'
p3
(lp4
F-267.0
aF-363.0
aF-446.0
aF-75.0
aF-385.0
aF-163.0
aF-200.0
aF-155.0
aF-12.0
aF-450.0
aF-312.0
aF-294.0
aF-445.0
aF-403.0
aF-336.0
asS'behavior_count'
p5
(dp6
I1
(dp7
S'FleeBehavior'
p8
(lp9
I5
aI49
aI21
aI36
aI35
aI1
aI49
aI1
aI1
aI0
aI1
aI2
aI0
aI0
aI1
aI0
aI0
aI4
aI15
aI0
aI0
aI2
aI0
aI1
aI0
aI4
aI0
aI0
aI1
aI1
aI1
aI3
aI5
aI0
aI3
aI16
aI46
aI26
aI9
aI0
aI29
aI7
aI2
aI30
aI8
aI1
aI4
aI1
aI3
aI0
aI1
aI3
aI2
aI0
aI1
aI2
aI1
aI2
aI1
aI2
aI4
aI3
aI1
aI1
aI1
aI9
aI1
aI6
aI0
aI0
aI1
aI0
aI0
aI3
aI2
aI1
aI11
aI15
aI1
aI18
aI29
aI55
aI24
aI7
aI55
aI0
aI2
aI1
aI0
aI12
aI5
aI6
aI15
aI18
aI85
aI68
aI1
aI7
aI1
aI0
aI0
aI0
aI0
aI0
aI0
aI0
aI0
aI0
aI0
aI0
aI0
aI0
aI0
aI0
aI0
asS'PursueBehavior'
p10
(lp11
I20
aI71
aI14
aI3
aI0
aI2
aI19
aI28
aI19
aI4
aI0
aI2
aI14
aI0
aI1
aI1
aI1
aI3
aI22
aI8
aI35
aI47
aI42
aI34
aI2
aI26
aI0
aI0
aI0
aI1
aI1
aI22
aI92
aI0
aI9
aI18
aI10
aI16
aI45
aI0
aI11
aI1
aI1
aI26
aI26
aI47
aI76
aI24
aI47
aI5
aI0
aI0
aI41
aI2
aI1
aI1
aI0
aI39
aI0
aI0
aI4
aI0
aI2
aI1
aI3
aI35
aI0
aI42
aI1
aI0
aI0
aI0
aI6
aI0
aI1
aI1
aI1
aI5
aI1
aI5
aI28
aI37
aI1
aI0
aI38
aI0
aI1
aI3
aI1
aI18
aI1
aI36
aI0
aI0
aI36
aI41
aI1
aI3
aI1
aI0
aI0
aI0
aI0
aI40
aI0
aI0
aI40
aI0
aI38
aI0
aI0
aI0
aI0
aI0
aI0
asS'SeekBehavior'
p12
(lp13
I5
aI40
aI2
aI1
aI7
aI58
aI47
aI3
aI4
aI12
aI12
aI52
aI23
aI16
aI14
aI27
aI27
aI88
aI13
aI22
aI11
aI3
aI2
aI9
aI7
aI15
aI16
aI16
aI15
aI23
aI50
aI90
aI42
aI30
aI84
aI69
aI53
aI52
aI25
aI21
aI84
aI26
aI20
aI31
aI25
aI8
aI13
aI4
aI4
aI10
aI17
aI48
aI57
aI43
aI16
aI14
aI18
aI25
aI26
aI31
aI79
aI28
aI54
aI16
aI53
aI111
aI10
aI81
aI18
aI21
aI23
aI25
aI22
aI38
aI60
aI10
aI53
aI81
aI32
aI84
aI104
aI86
aI11
aI4
aI14
aI23
aI30
aI68
aI21
aI141
aI31
aI25
aI8
aI20
aI54
aI23
aI12
aI44
aI13
aI12
aI77
aI24
aI16
aI85
aI46
aI74
aI50
aI116
aI35
aI10
aI63
aI45
aI15
aI13
aI27
assI2
(dp14
S'FleeBehavior'
p15
(lp16
I8
aI75
aI0
aI4
aI34
aI49
aI16
aI5
aI1
aI0
aI0
aI2
aI0
aI0
aI0
aI2
aI0
aI4
aI9
aI7
aI1
aI2
aI12
aI4
aI0
aI4
aI0
aI0
aI0
aI0
aI5
aI8
aI71
aI0
aI21
aI22
aI69
aI56
aI34
aI20
aI72
aI13
aI21
aI41
aI15
aI54
aI50
aI27
aI26
aI12
aI18
aI48
aI56
aI40
aI17
aI16
aI19
aI59
aI26
aI32
aI78
aI29
aI56
aI18
aI55
aI107
aI11
aI81
aI18
aI18
aI22
aI24
aI17
aI37
aI58
aI11
aI46
aI45
aI11
aI30
aI80
aI113
aI33
aI11
aI64
aI21
aI26
aI69
aI21
aI93
aI30
aI27
aI22
aI35
aI111
aI10
aI7
aI50
aI12
aI11
aI77
aI23
aI16
aI121
aI46
aI74
aI89
aI116
aI60
aI10
aI62
aI45
aI15
aI13
aI27
asS'PursueBehavior'
p17
(lp18
I11
aI55
aI1
aI1
aI7
aI3
aI68
aI26
aI23
aI15
aI12
aI51
aI37
aI14
aI15
aI25
aI26
aI79
aI30
aI3
aI1
aI2
aI2
aI1
aI0
aI2
aI3
aI1
aI0
aI1
aI4
aI26
aI27
aI0
aI2
aI3
aI0
aI9
aI42
aI1
aI34
aI2
aI1
aI40
aI1
aI0
aI38
aI1
aI27
aI0
aI0
aI0
aI40
aI1
aI0
aI0
aI0
aI3
aI0
aI1
aI4
aI1
aI1
aI0
aI1
aI42
aI0
aI40
aI1
aI1
aI1
aI0
aI7
aI2
aI2
aI0
aI2
aI5
aI1
aI2
aI12
aI17
aI1
aI0
aI4
aI2
aI2
aI0
aI0
aI32
aI5
aI40
aI0
aI3
aI28
aI119
aI6
aI2
aI1
aI0
aI0
aI0
aI0
aI3
aI0
aI0
aI0
aI0
aI12
aI0
aI0
aI0
aI0
aI0
aI0
asS'SeekBehavior'
p19
(lp20
I11
aI30
aI36
aI34
aI1
aI9
aI31
aI1
aI0
aI1
aI1
aI2
aI0
aI1
aI1
aI1
aI1
aI12
aI11
aI20
aI44
aI48
aI30
aI38
aI9
aI39
aI13
aI15
aI16
aI24
aI43
aI81
aI41
aI30
aI73
aI78
aI40
aI29
aI3
aI0
aI17
aI19
aI1
aI6
aI43
aI2
aI5
aI1
aI1
aI2
aI0
aI2
aI4
aI4
aI0
aI1
aI0
aI4
aI1
aI0
aI4
aI1
aI0
aI0
aI1
aI5
aI0
aI8
aI0
aI2
aI1
aI1
aI4
aI2
aI3
aI0
aI16
aI51
aI22
aI74
aI69
aI48
aI2
aI0
aI39
aI0
aI5
aI3
aI1
aI46
aI2
aI0
aI1
aI0
aI36
aI3
aI0
aI2
aI2
aI1
aI0
aI0
aI0
aI1
aI0
aI0
aI1
aI0
aI1
aI0
aI0
aI0
aI0
aI0
aI0
assI3
(dp21
S'FleeBehavior'
p22
(lp23
I15
aI39
aI1
aI1
aI0
aI4
aI22
aI6
aI1
aI0
aI2
aI1
aI2
aI3
aI0
aI4
aI3
aI14
aI8
aI3
aI5
aI46
aI35
aI29
aI9
aI41
aI13
aI11
aI14
aI18
aI46
aI79
aI45
aI14
aI64
aI17
aI2
aI36
aI64
aI4
aI51
aI2
aI2
aI26
aI3
aI1
aI4
aI1
aI1
aI0
aI1
aI1
aI4
aI1
aI0
aI0
aI0
aI2
aI2
aI1
aI1
aI1
aI3
aI0
aI0
aI4
aI0
aI5
aI1
aI0
aI1
aI2
aI1
aI2
aI0
aI2
aI1
aI7
aI3
aI5
aI67
aI58
aI2
aI0
aI4
aI0
aI0
aI2
aI0
aI9
aI1
aI8
aI0
aI2
aI13
aI63
aI2
aI8
aI0
aI1
aI0
aI0
aI0
aI34
aI0
aI0
aI35
aI0
aI34
aI0
aI0
aI0
aI0
aI0
aI0
asS'PursueBehavior'
p24
(lp25
I7
aI79
aI24
aI24
aI27
aI7
aI36
aI16
aI22
aI15
aI11
aI52
aI35
aI12
aI16
aI23
aI24
aI78
aI32
aI16
aI36
aI3
aI8
aI12
aI0
aI2
aI3
aI5
aI2
aI5
aI6
aI22
aI63
aI13
aI29
aI65
aI62
aI23
aI9
aI16
aI58
aI31
aI21
aI46
aI54
aI51
aI50
aI27
aI51
aI13
aI17
aI47
aI80
aI43
aI17
aI17
aI18
aI45
aI25
aI32
aI84
aI30
aI49
aI18
aI54
aI122
aI11
aI90
aI16
aI21
aI22
aI22
aI24
aI36
aI62
aI9
aI48
aI86
aI28
aI83
aI56
aI66
aI31
aI11
aI65
aI23
aI31
aI65
aI21
aI122
aI36
aI35
aI23
aI35
aI124
aI65
aI11
aI42
aI15
aI10
aI77
aI23
aI16
aI90
aI46
aI73
aI55
aI116
aI39
aI10
aI62
aI44
aI15
aI13
aI27
asS'SeekBehavior'
p26
(lp27
I8
aI42
aI12
aI14
aI15
aI50
aI57
aI10
aI1
aI1
aI0
aI2
aI0
aI0
aI0
aI1
aI0
aI3
aI10
aI10
aI4
aI3
aI1
aI2
aI0
aI2
aI0
aI0
aI0
aI2
aI0
aI13
aI31
aI3
aI3
aI21
aI45
aI35
aI5
aI1
aI14
aI0
aI0
aI15
aI1
aI4
aI39
aI1
aI1
aI1
aI0
aI2
aI16
aI1
aI0
aI0
aI1
aI19
aI0
aI0
aI1
aI0
aI5
aI0
aI3
aI28
aI0
aI34
aI2
aI0
aI1
aI0
aI3
aI2
aI1
aI0
aI15
aI8
aI3
aI18
aI38
aI53
aI2
aI0
aI38
aI0
aI2
aI4
aI1
aI39
aI0
aI24
aI0
aI1
aI38
aI4
aI0
aI4
aI0
aI0
aI0
aI0
aI0
aI1
aI0
aI0
aI0
aI0
aI0
aI0
aI0
aI0
aI0
aI0
aI0
asss.