(dp0
S'learn_scores'
p1
(lp2
F-383.0
aF-378.0
aF-415.0
aF-428.0
aF-273.0
aF-411.0
aF-379.0
aF362.0
aF-369.0
aF-381.0
aF-410.0
aF-430.0
aF-412.0
aF231.0
aF23.0
aF-431.0
aF-425.0
aF-444.0
aF-412.0
aF-397.0
aF-435.0
aF-477.0
aF-427.0
aF-155.0
aF-403.0
aF-457.0
aF-413.0
aF-366.0
aF-376.0
aF-441.0
aF-418.0
aF-107.0
aF-423.0
aF-417.0
aF-451.0
aF-404.0
aF-429.0
aF-438.0
aF-310.0
aF-426.0
aF-418.0
aF-323.0
aF-415.0
aF-346.0
aF-394.0
aF-348.0
aF-417.0
aF48.0
aF-478.0
aF-425.0
aF-427.0
aF-272.0
aF-463.0
aF-315.0
aF-453.0
aF-443.0
aF-408.0
aF-475.0
aF-433.0
aF-300.0
aF-275.0
aF-428.0
aF-412.0
aF-465.0
aF-477.0
aF-454.0
aF-375.0
aF-400.0
aF-435.0
aF-454.0
aF-438.0
aF-371.0
aF-360.0
aF-214.0
aF-382.0
aF-422.0
aF-407.0
aF72.0
aF-414.0
aF-441.0
aF-385.0
aF-376.0
aF-450.0
aF-410.0
aF-435.0
aF-264.0
aF-401.0
aF-401.0
aF-439.0
aF-387.0
aF-414.0
aF-401.0
aF-411.0
aF-386.0
aF260.0
aF-443.0
aF-431.0
aF-387.0
aF-400.0
aF-435.0
asS'test_scores'
p3
(lp4
F-383.0
aF-390.0
aF-444.0
aF-392.0
aF-429.0
aF-77.0
aF-276.0
aF-318.0
aF-421.0
aF-408.0
aF-340.0
aF-355.0
aF-271.0
aF-403.0
aF-356.0
asS'behavior_count'
p5
(dp6
I1
(dp7
S'FleeBehavior'
p8
(lp9
I7
aI2
aI1
aI0
aI16
aI22
aI28
aI68
aI40
aI39
aI29
aI30
aI20
aI21
aI59
aI37
aI26
aI32
aI30
aI16
aI23
aI16
aI17
aI50
aI21
aI25
aI24
aI53
aI44
aI11
aI17
aI75
aI20
aI28
aI21
aI24
aI28
aI17
aI63
aI17
aI18
aI59
aI43
aI27
aI23
aI56
aI15
aI66
aI28
aI15
aI18
aI54
aI13
aI30
aI13
aI13
aI18
aI15
aI32
aI48
aI54
aI22
aI23
aI22
aI17
aI12
aI52
aI52
aI4
aI8
aI6
aI24
aI13
aI30
aI40
aI20
aI25
aI35
aI20
aI3
aI4
aI1
aI0
aI1
aI0
aI4
aI0
aI2
aI0
aI1
aI1
aI3
aI2
aI2
aI3
aI0
aI2
aI1
aI0
aI2
aI0
aI0
aI0
aI1
aI0
aI0
aI0
aI0
aI0
aI0
aI0
aI0
aI0
aI0
aI0
asS'PursueBehavior'
p10
(lp11
I20
aI1
aI2
aI19
aI58
aI0
aI0
aI8
aI8
aI0
aI1
aI0
aI0
aI5
aI58
aI3
aI0
aI3
aI2
aI1
aI1
aI0
aI0
aI34
aI1
aI2
aI0
aI3
aI2
aI0
aI2
aI30
aI3
aI0
aI1
aI0
aI0
aI1
aI5
aI0
aI0
aI0
aI1
aI8
aI1
aI0
aI2
aI36
aI0
aI1
aI0
aI2
aI0
aI4
aI0
aI0
aI0
aI1
aI1
aI3
aI1
aI16
aI0
aI0
aI0
aI1
aI0
aI8
aI8
aI27
aI10
aI6
aI27
aI63
aI1
aI2
aI0
aI31
aI1
aI0
aI1
aI1
aI1
aI1
aI0
aI5
aI2
aI0
aI0
aI2
aI1
aI0
aI0
aI2
aI38
aI1
aI0
aI1
aI1
aI2
aI0
aI0
aI0
aI0
aI0
aI37
aI0
aI0
aI0
aI0
aI0
aI0
aI0
aI0
aI0
asS'SeekBehavior'
p12
(lp13
I7
aI26
aI22
aI0
aI10
aI0
aI1
aI42
aI1
aI2
aI1
aI1
aI2
aI73
aI20
aI2
aI0
aI0
aI1
aI1
aI1
aI1
aI0
aI2
aI1
aI1
aI0
aI1
aI0
aI0
aI0
aI3
aI1
aI0
aI0
aI0
aI2
aI1
aI2
aI0
aI0
aI4
aI1
aI1
aI1
aI2
aI0
aI0
aI0
aI0
aI0
aI6
aI0
aI2
aI0
aI0
aI0
aI0
aI1
aI0
aI1
aI1
aI0
aI3
aI1
aI1
aI4
aI0
aI3
aI0
aI2
aI1
aI0
aI1
aI1
aI0
aI2
aI2
aI3
aI9
aI30
aI34
aI10
aI29
aI15
aI86
aI20
aI30
aI19
aI35
aI23
aI28
aI20
aI33
aI69
aI12
aI30
aI35
aI30
aI22
aI33
aI40
aI14
aI32
aI20
aI51
aI67
aI49
aI22
aI38
aI40
aI35
aI61
aI33
aI27
assI2
(dp14
S'FleeBehavior'
p15
(lp16
I10
aI0
aI2
aI0
aI13
aI0
aI1
aI26
aI2
aI6
aI3
aI25
aI0
aI6
aI48
aI2
aI1
aI0
aI0
aI0
aI1
aI0
aI0
aI2
aI0
aI1
aI2
aI1
aI9
aI10
aI18
aI101
aI22
aI23
aI20
aI22
aI27
aI18
aI69
aI15
aI16
aI61
aI43
aI33
aI21
aI54
aI16
aI93
aI13
aI16
aI17
aI57
aI12
aI34
aI13
aI12
aI17
aI14
aI32
aI47
aI54
aI33
aI21
aI23
aI18
aI14
aI53
aI58
aI14
aI30
aI17
aI30
aI37
aI83
aI35
aI21
aI27
aI64
aI21
aI12
aI33
aI35
aI9
aI29
aI15
aI87
aI21
aI31
aI17
aI35
aI21
aI27
aI20
aI36
aI97
aI11
aI27
aI33
aI30
aI22
aI32
aI40
aI13
aI32
aI20
aI87
aI64
aI49
aI21
aI38
aI40
aI35
aI60
aI31
aI27
asS'PursueBehavior'
p17
(lp18
I17
aI25
aI23
aI19
aI49
aI2
aI2
aI65
aI6
aI11
aI2
aI2
aI1
aI34
aI65
aI6
aI24
aI33
aI33
aI16
aI23
aI17
aI17
aI81
aI22
aI27
aI20
aI52
aI36
aI1
aI1
aI2
aI0
aI0
aI0
aI1
aI1
aI0
aI1
aI0
aI1
aI2
aI0
aI1
aI2
aI1
aI1
aI4
aI4
aI0
aI1
aI2
aI1
aI1
aI0
aI0
aI0
aI1
aI2
aI1
aI1
aI3
aI2
aI0
aI0
aI0
aI0
aI1
aI0
aI1
aI0
aI0
aI1
aI3
aI0
aI0
aI0
aI1
aI1
aI0
aI2
aI1
aI0
aI1
aI0
aI3
aI1
aI0
aI0
aI1
aI2
aI1
aI1
aI0
aI3
aI0
aI0
aI3
aI0
aI0
aI0
aI0
aI0
aI0
aI0
aI0
aI0
aI0
aI0
aI0
aI0
aI0
aI0
aI0
aI0
asS'SeekBehavior'
p19
(lp20
I7
aI3
aI0
aI0
aI21
aI20
aI26
aI27
aI41
aI24
aI26
aI4
aI21
aI59
aI24
aI33
aI1
aI2
aI0
aI2
aI1
aI0
aI0
aI3
aI1
aI0
aI2
aI3
aI1
aI0
aI0
aI4
aI2
aI4
aI2
aI1
aI2
aI0
aI0
aI2
aI1
aI0
aI2
aI2
aI2
aI3
aI0
aI5
aI11
aI0
aI0
aI3
aI0
aI1
aI0
aI1
aI1
aI0
aI0
aI3
aI0
aI3
aI0
aI2
aI0
aI0
aI3
aI1
aI1
aI3
aI1
aI1
aI2
aI8
aI7
aI1
aI0
aI3
aI2
aI0
aI0
aI0
aI2
aI1
aI0
aI5
aI0
aI0
aI2
aI2
aI2
aI3
aI0
aI1
aI10
aI2
aI4
aI1
aI0
aI3
aI1
aI0
aI1
aI0
aI0
aI0
aI2
aI0
aI1
aI0
aI0
aI0
aI1
aI2
aI0
assI3
(dp21
S'FleeBehavior'
p22
(lp23
I11
aI21
aI5
aI1
aI22
aI1
aI3
aI53
aI44
aI39
aI29
aI30
aI20
aI53
aI78
aI0
aI0
aI1
aI0
aI1
aI1
aI0
aI1
aI3
aI0
aI0
aI0
aI2
aI3
aI0
aI0
aI4
aI0
aI1
aI2
aI2
aI1
aI2
aI2
aI0
aI0
aI2
aI2
aI1
aI0
aI4
aI1
aI10
aI19
aI16
aI16
aI49
aI10
aI27
aI2
aI7
aI13
aI14
aI26
aI41
aI38
aI11
aI0
aI1
aI0
aI0
aI1
aI2
aI0
aI2
aI0
aI2
aI2
aI9
aI5
aI0
aI1
aI4
aI2
aI1
aI0
aI2
aI0
aI2
aI0
aI0
aI1
aI1
aI1
aI1
aI3
aI1
aI0
aI3
aI2
aI0
aI2
aI3
aI1
aI3
aI0
aI0
aI0
aI0
aI0
aI0
aI0
aI0
aI0
aI0
aI0
aI0
aI0
aI0
aI0
asS'PursueBehavior'
p24
(lp25
I13
aI7
aI16
aI17
aI55
aI20
aI26
aI40
aI2
aI1
aI0
aI1
aI1
aI7
aI39
aI38
aI26
aI32
aI33
aI17
aI24
aI16
aI15
aI81
aI23
aI28
aI24
aI51
aI43
aI10
aI19
aI100
aI23
aI25
aI19
aI22
aI28
aI16
aI67
aI15
aI18
aI59
aI43
aI34
aI23
aI53
aI16
aI89
aI6
aI0
aI0
aI11
aI3
aI9
aI9
aI5
aI4
aI0
aI7
aI5
aI16
aI26
aI22
aI23
aI16
aI13
aI55
aI57
aI15
aI31
aI17
aI28
aI38
aI78
aI33
aI19
aI8
aI28
aI1
aI0
aI0
aI0
aI0
aI0
aI0
aI9
aI4
aI0
aI1
aI5
aI1
aI2
aI0
aI4
aI24
aI1
aI4
aI3
aI2
aI3
aI0
aI3
aI0
aI2
aI0
aI0
aI2
aI2
aI0
aI2
aI0
aI2
aI2
aI1
aI4
asS'SeekBehavior'
p26
(lp27
I10
aI0
aI4
aI0
aI6
aI0
aI0
aI25
aI3
aI1
aI1
aI0
aI1
aI39
aI20
aI3
aI0
aI1
aI0
aI0
aI0
aI1
aI1
aI1
aI0
aI0
aI0
aI3
aI0
aI1
aI0
aI3
aI1
aI1
aI0
aI0
aI1
aI0
aI1
aI2
aI0
aI2
aI0
aI1
aI1
aI1
aI0
aI3
aI3
aI0
aI2
aI2
aI0
aI0
aI2
aI1
aI1
aI1
aI1
aI4
aI1
aI2
aI1
aI1
aI1
aI1
aI0
aI1
aI0
aI1
aI1
aI1
aI0
aI7
aI4
aI3
aI18
aI36
aI21
aI11
aI35
aI34
aI10
aI29
aI15
aI86
aI17
aI30
aI17
aI32
aI20
aI28
aI21
aI30
aI84
aI12
aI25
aI31
aI27
aI19
aI33
aI37
aI14
aI30
aI20
aI87
aI64
aI47
aI21
aI36
aI40
aI33
aI59
aI32
aI23
assI4
(dp28
S'FleeBehavior'
p29
(lp30
I14
aI24
aI25
aI15
aI26
aI19
aI26
aI73
aI5
aI0
aI1
aI2
aI20
aI58
aI47
aI2
aI0
aI1
aI1
aI1
aI0
aI1
aI0
aI25
aI0
aI0
aI0
aI3
aI0
aI0
aI0
aI33
aI1
aI2
aI1
aI4
aI1
aI0
aI4
aI1
aI0
aI3
aI0
aI2
aI2
aI1
aI0
aI9
aI0
aI0
aI1
aI3
aI11
aI22
aI13
aI12
aI17
aI15
aI29
aI44
aI48
aI35
aI23
aI24
aI15
aI13
aI55
aI52
aI11
aI30
aI16
aI27
aI34
aI80
aI34
aI21
aI27
aI53
aI22
aI9
aI27
aI32
aI9
aI28
aI14
aI80
aI19
aI29
aI16
aI34
aI21
aI30
aI17
aI36
aI87
aI13
aI29
aI37
aI23
aI22
aI33
aI38
aI13
aI31
aI19
aI81
aI66
aI45
aI21
aI36
aI39
aI34
aI60
aI33
aI26
asS'PursueBehavior'
p31
(lp32
I5
aI0
aI0
aI0
aI12
aI0
aI2
aI26
aI10
aI2
aI3
aI26
aI1
aI29
aI18
aI8
aI0
aI0
aI3
aI1
aI1
aI0
aI1
aI1
aI1
aI1
aI1
aI3
aI5
aI0
aI3
aI5
aI0
aI3
aI1
aI0
aI1
aI0
aI1
aI0
aI1
aI1
aI3
aI10
aI1
aI1
aI1
aI10
aI0
aI1
aI2
aI11
aI0
aI1
aI0
aI1
aI0
aI0
aI1
aI2
aI4
aI0
aI0
aI1
aI1
aI1
aI0
aI2
aI0
aI2
aI0
aI2
aI2
aI3
aI1
aI1
aI0
aI4
aI0
aI2
aI2
aI0
aI0
aI0
aI1
aI7
aI1
aI0
aI1
aI1
aI0
aI1
aI2
aI0
aI3
aI0
aI2
aI0
aI3
aI1
aI0
aI0
aI0
aI0
aI0
aI0
aI0
aI0
aI0
aI0
aI0
aI0
aI0
aI0
aI0
asS'SeekBehavior'
p33
(lp34
I14
aI4
aI0
aI3
aI45
aI2
aI1
aI19
aI34
aI39
aI26
aI2
aI1
aI12
aI72
aI31
aI26
aI33
aI28
aI16
aI24
aI16
aI16
aI59
aI22
aI26
aI22
aI50
aI41
aI11
aI15
aI69
aI22
aI22
aI19
aI20
aI27
aI18
aI65
aI16
aI17
aI59
aI42
aI24
aI21
aI56
aI16
aI83
aI28
aI15
aI15
aI48
aI2
aI12
aI0
aI0
aI1
aI0
aI3
aI4
aI3
aI4
aI0
aI0
aI1
aI0
aI0
aI6
aI4
aI2
aI2
aI2
aI4
aI11
aI7
aI0
aI0
aI11
aI2
aI1
aI6
aI4
aI1
aI2
aI0
aI7
aI1
aI2
aI2
aI3
aI3
aI0
aI2
aI0
aI20
aI0
aI0
aI0
aI4
aI2
aI0
aI2
aI1
aI1
aI1
aI6
aI0
aI3
aI0
aI2
aI1
aI1
aI1
aI0
aI0
asss.