(dp0
S'learn_scores'
p1
(lp2
F-453.0
aF-377.0
aF-424.0
aF-203.0
aF-167.0
aF198.0
aF-418.0
aF-444.0
aF-410.0
aF-412.0
aF-392.0
aF-19.0
aF-158.0
aF-414.0
aF-462.0
aF-381.0
aF-206.0
aF-381.0
aF-418.0
aF-67.0
aF-387.0
aF-267.0
aF-440.0
aF-478.0
aF-374.0
aF-331.0
aF-457.0
aF-364.0
aF377.0
aF-388.0
aF-451.0
aF-440.0
aF-195.0
aF-450.0
aF-55.0
aF-268.0
aF5.0
aF-393.0
aF-404.0
aF-207.0
aF-404.0
aF-311.0
aF-201.0
aF-412.0
aF-395.0
aF-421.0
aF-377.0
aF-477.0
aF-412.0
aF-81.0
aF-418.0
aF-265.0
aF-244.0
aF-416.0
aF-275.0
aF-315.0
aF-398.0
aF-388.0
aF-388.0
aF312.0
aF-419.0
aF-414.0
aF-372.0
aF46.0
aF-377.0
aF-431.0
aF-328.0
aF-417.0
aF-439.0
aF-354.0
aF-189.0
aF-83.0
aF-451.0
aF-408.0
aF-421.0
aF-370.0
aF-415.0
aF-419.0
aF-319.0
aF-302.0
aF-424.0
aF-349.0
aF-338.0
aF-36.0
aF-368.0
aF140.0
aF-393.0
aF-415.0
aF-448.0
aF-19.0
aF-406.0
aF-386.0
aF-477.0
aF-307.0
aF-447.0
aF-382.0
aF-402.0
aF-367.0
aF-443.0
aF-393.0
asS'test_scores'
p3
(lp4
F-399.0
aF-406.0
aF-444.0
aF165.0
aF-332.0
aF-387.0
aF-381.0
aF-457.0
aF-424.0
aF-405.0
aF-463.0
aF-367.0
aF-425.0
aF-367.0
aF-427.0
asS'behavior_count'
p5
(dp6
I1
(dp7
S'FleeBehavior'
p8
(lp9
I3
aI0
aI0
aI4
aI49
aI23
aI1
aI0
aI0
aI0
aI1
aI34
aI42
aI0
aI0
aI2
aI15
aI7
aI0
aI28
aI0
aI1
aI1
aI0
aI1
aI1
aI1
aI1
aI10
aI1
aI0
aI1
aI34
aI2
aI19
aI2
aI37
aI0
aI1
aI2
aI0
aI1
aI3
aI0
aI1
aI0
aI1
aI2
aI1
aI3
aI0
aI3
aI2
aI0
aI2
aI2
aI2
aI1
aI0
aI23
aI1
aI1
aI2
aI10
aI3
aI0
aI0
aI3
aI4
aI0
aI5
aI22
aI0
aI1
aI0
aI1
aI1
aI0
aI1
aI1
aI0
aI4
aI2
aI4
aI0
aI11
aI0
aI1
aI1
aI4
aI2
aI1
aI0
aI0
aI1
aI3
aI2
aI0
aI0
aI1
aI0
aI0
aI0
aI0
aI0
aI0
aI0
aI0
aI0
aI0
aI0
aI0
aI0
aI0
aI0
asS'PursueBehavior'
p10
(lp11
I1
aI9
aI0
aI12
aI27
aI26
aI16
aI14
aI28
aI23
aI22
aI50
aI59
aI29
aI10
aI32
aI71
aI8
aI1
aI2
aI0
aI3
aI0
aI0
aI3
aI1
aI0
aI3
aI1
aI1
aI1
aI2
aI5
aI17
aI5
aI48
aI40
aI0
aI6
aI27
aI0
aI1
aI13
aI0
aI0
aI0
aI3
aI1
aI1
aI46
aI16
aI35
aI21
aI25
aI96
aI63
aI24
aI17
aI23
aI63
aI37
aI18
aI10
aI16
aI6
aI6
aI44
aI15
aI24
aI37
aI80
aI48
aI24
aI23
aI21
aI37
aI13
aI18
aI29
aI47
aI13
aI33
aI62
aI69
aI36
aI31
aI27
aI22
aI16
aI36
aI33
aI35
aI16
aI56
aI13
aI38
aI20
aI24
aI12
aI32
aI19
aI12
aI14
aI70
aI42
aI37
aI20
aI16
aI31
aI34
aI23
aI27
aI45
aI25
aI24
asS'SeekBehavior'
p12
(lp13
I20
aI39
aI35
aI78
aI41
aI63
aI1
aI1
aI2
aI0
aI0
aI5
aI28
aI5
aI3
aI8
aI20
aI47
aI18
aI48
aI27
aI64
aI10
aI18
aI30
aI79
aI17
aI30
aI73
aI27
aI11
aI18
aI57
aI21
aI61
aI29
aI29
aI23
aI48
aI89
aI24
aI39
aI86
aI23
aI35
aI21
aI44
aI35
aI21
aI93
aI13
aI18
aI32
aI2
aI28
aI1
aI12
aI1
aI6
aI73
aI12
aI16
aI21
aI89
aI49
aI6
aI34
aI10
aI2
aI18
aI34
aI43
aI8
aI4
aI1
aI2
aI1
aI1
aI0
aI5
aI2
aI22
aI4
aI44
aI3
aI9
aI7
aI3
aI2
aI39
aI2
aI1
aI1
aI2
aI4
aI2
aI1
aI3
aI1
aI1
aI1
aI5
aI0
aI15
aI1
aI1
aI1
aI2
aI4
aI2
aI1
aI1
aI0
aI3
aI3
assI2
(dp14
S'FleeBehavior'
p15
(lp16
I1
aI0
aI1
aI31
aI70
aI27
aI18
aI14
aI28
aI22
aI21
aI70
aI62
aI2
aI2
aI0
aI16
aI1
aI0
aI2
aI1
aI5
aI0
aI0
aI2
aI5
aI1
aI1
aI5
aI1
aI1
aI0
aI1
aI0
aI1
aI0
aI5
aI11
aI2
aI18
aI24
aI39
aI49
aI16
aI34
aI19
aI48
aI34
aI18
aI91
aI25
aI12
aI17
aI25
aI48
aI27
aI14
aI17
aI28
aI95
aI46
aI32
aI29
aI77
aI22
aI0
aI9
aI4
aI26
aI51
aI97
aI70
aI31
aI25
aI21
aI39
aI14
aI16
aI27
aI49
aI13
aI55
aI65
aI109
aI37
aI20
aI30
aI23
aI19
aI75
aI36
aI36
aI15
aI55
aI17
aI37
aI21
aI24
aI13
aI31
aI19
aI16
aI14
aI85
aI42
aI37
aI21
aI18
aI35
aI35
aI23
aI28
aI45
aI27
aI27
asS'PursueBehavior'
p17
(lp18
I11
aI11
aI33
aI56
aI25
aI65
aI0
aI1
aI1
aI0
aI0
aI2
aI3
aI2
aI9
aI37
aI80
aI56
aI19
aI43
aI23
aI61
aI11
aI18
aI31
aI73
aI14
aI33
aI52
aI28
aI10
aI21
aI62
aI37
aI60
aI75
aI65
aI11
aI49
aI81
aI0
aI2
aI39
aI3
aI2
aI1
aI0
aI2
aI1
aI3
aI2
aI4
aI1
aI0
aI1
aI3
aI0
aI0
aI0
aI6
aI2
aI1
aI2
aI26
aI33
aI11
aI67
aI21
aI3
aI1
aI16
aI37
aI0
aI2
aI0
aI1
aI1
aI1
aI0
aI1
aI1
aI3
aI1
aI5
aI2
aI18
aI4
aI2
aI0
aI2
aI0
aI0
aI1
aI1
aI0
aI2
aI0
aI2
aI0
aI2
aI0
aI0
aI0
aI0
aI0
aI0
aI0
aI0
aI0
aI0
aI0
aI0
aI0
aI0
aI0
asS'SeekBehavior'
p19
(lp20
I12
aI36
aI0
aI7
aI22
aI20
aI0
aI0
aI1
aI0
aI1
aI17
aI63
aI30
aI1
aI4
aI10
aI4
aI0
aI33
aI3
aI2
aI0
aI0
aI1
aI3
aI2
aI0
aI27
aI0
aI0
aI0
aI33
aI3
aI24
aI3
aI36
aI1
aI3
aI18
aI0
aI0
aI13
aI4
aI0
aI1
aI0
aI1
aI3
aI48
aI2
aI39
aI37
aI2
aI77
aI36
aI24
aI1
aI1
aI58
aI1
aI2
aI1
aI11
aI2
aI1
aI2
aI3
aI1
aI2
aI6
aI6
aI1
aI1
aI0
aI0
aI0
aI2
aI3
aI3
aI0
aI1
aI2
aI2
aI0
aI12
aI0
aI0
aI0
aI2
aI1
aI1
aI1
aI2
aI0
aI4
aI1
aI1
aI0
aI1
aI0
aI0
aI0
aI0
aI0
aI0
aI0
aI0
aI0
aI0
aI0
aI0
aI0
aI0
aI0
assI3
(dp21
S'FleeBehavior'
p22
(lp23
I8
aI3
aI8
aI45
aI23
aI63
aI1
aI0
aI1
aI2
aI1
aI18
aI22
aI1
aI1
aI3
aI8
aI18
aI18
aI52
aI21
aI65
aI11
aI17
aI33
aI71
aI16
aI33
aI55
aI9
aI9
aI0
aI11
aI3
aI26
aI17
aI57
aI4
aI29
aI83
aI12
aI9
aI8
aI1
aI2
aI1
aI4
aI2
aI3
aI45
aI26
aI35
aI50
aI25
aI114
aI54
aI29
aI18
aI28
aI126
aI3
aI12
aI1
aI39
aI6
aI5
aI21
aI2
aI4
aI4
aI35
aI57
aI30
aI26
aI18
aI35
aI15
aI15
aI29
aI47
aI12
aI55
aI64
aI75
aI35
aI21
aI29
aI24
aI17
aI50
aI35
aI35
aI15
aI55
aI16
aI40
aI20
aI24
aI12
aI30
aI19
aI16
aI14
aI85
aI42
aI37
aI21
aI18
aI34
aI35
aI23
aI28
aI45
aI27
aI27
asS'PursueBehavior'
p24
(lp25
I11
aI27
aI7
aI24
aI58
aI26
aI17
aI15
aI29
aI19
aI18
aI67
aI87
aI31
aI11
aI37
aI95
aI39
aI0
aI24
aI3
aI1
aI0
aI0
aI1
aI5
aI0
aI1
aI24
aI18
aI2
aI20
aI85
aI33
aI56
aI55
aI41
aI3
aI4
aI12
aI6
aI1
aI5
aI0
aI1
aI0
aI2
aI3
aI0
aI15
aI0
aI2
aI2
aI2
aI2
aI0
aI1
aI0
aI0
aI21
aI2
aI0
aI0
aI19
aI14
aI0
aI11
aI25
aI23
aI42
aI21
aI36
aI0
aI1
aI1
aI3
aI0
aI2
aI0
aI2
aI2
aI2
aI3
aI38
aI3
aI27
aI3
aI1
aI0
aI22
aI1
aI1
aI1
aI0
aI1
aI2
aI1
aI3
aI1
aI2
aI0
aI0
aI0
aI0
aI0
aI0
aI0
aI0
aI0
aI0
aI0
aI0
aI0
aI0
aI0
asS'SeekBehavior'
p26
(lp27
I4
aI17
aI19
aI25
aI36
aI23
aI0
aI0
aI0
aI1
aI3
aI4
aI19
aI2
aI0
aI1
aI3
aI4
aI0
aI2
aI3
aI1
aI0
aI1
aI0
aI5
aI1
aI0
aI4
aI1
aI0
aI0
aI0
aI4
aI3
aI6
aI7
aI16
aI21
aI22
aI6
aI31
aI88
aI22
aI32
aI20
aI42
aI32
aI19
aI82
aI3
aI18
aI2
aI0
aI10
aI12
aI8
aI0
aI0
aI11
aI44
aI22
aI31
aI56
aI37
aI7
aI46
aI0
aI3
aI8
aI63
aI20
aI2
aI1
aI2
aI2
aI0
aI2
aI1
aI3
aI0
aI2
aI1
aI3
aI1
aI2
aI1
aI0
aI1
aI7
aI0
aI0
aI1
aI3
aI0
aI0
aI1
aI0
aI0
aI1
aI0
aI0
aI0
aI0
aI0
aI0
aI0
aI0
aI0
aI0
aI0
aI0
aI0
aI0
aI0
asss.