(dp0
S'learn_scores'
p1
(lp2
F-113.0
aF242.0
aF-428.0
aF202.0
aF300.0
aF1075.0
aF69.0
aF419.0
aF181.0
aF-293.0
aF-383.0
aF-383.0
aF-356.0
aF-383.0
aF-312.0
aF680.0
aF538.0
aF-392.0
aF272.0
aF1338.0
aF-287.0
aF-392.0
aF-437.0
aF-150.0
aF-293.0
aF-419.0
aF-392.0
aF-257.0
aF-419.0
aF-311.0
aF-383.0
aF-419.0
aF-234.0
aF807.0
aF-266.0
aF645.0
aF-311.0
aF-32.0
aF-365.0
aF137.0
aF-374.0
aF-208.0
aF-297.0
aF-338.0
aF-217.0
aF-275.0
aF-69.0
aF-213.0
aF-239.0
aF1749.0
aF667.0
aF-293.0
aF-419.0
aF370.0
aF-383.0
aF-410.0
aF-315.0
aF-320.0
aF-392.0
aF571.0
aF597.0
aF184.0
aF1947.0
aF-220.0
aF-100.0
aF1950.0
aF107.0
aF-365.0
aF23.0
aF100.0
aF-356.0
aF-356.0
aF471.0
aF977.0
aF-419.0
aF-383.0
aF-302.0
aF223.0
aF-293.0
aF-329.0
aF-74.0
aF-392.0
aF140.0
aF103.0
aF-149.0
aF1751.0
aF-392.0
aF349.0
aF-329.0
aF-303.0
aF190.0
aF-204.0
aF-170.0
aF-302.0
aF-347.0
aF-392.0
aF-250.0
aF493.0
aF-374.0
aF439.0
asS'test_scores'
p3
(lp4
F-347.0
aF-338.0
aF-266.0
aF-320.0
aF-365.0
aF-437.0
aF1749.0
aF-347.0
aF-383.0
aF-155.0
aF1053.0
aF285.0
aF-307.0
aF-428.0
aF-348.0
asS'behavior_count'
p5
(dp6
I1
(dp7
S'FleeBehavior'
p8
(lp9
I14
aI7
aI0
aI9
aI1
aI39
aI16
aI18
aI3
aI0
aI1
aI0
aI0
aI0
aI2
aI33
aI2
aI0
aI2
aI64
aI1
aI1
aI0
aI1
aI1
aI0
aI0
aI1
aI1
aI0
aI2
aI0
aI0
aI16
aI0
aI28
aI1
aI5
aI1
aI17
aI1
aI1
aI1
aI0
aI1
aI1
aI2
aI3
aI6
aI74
aI10
aI0
aI0
aI8
aI0
aI0
aI2
aI0
aI2
aI26
aI23
aI15
aI61
aI28
aI43
aI60
aI23
aI14
aI20
aI3
aI0
aI1
aI1
aI27
aI0
aI0
aI0
aI1
aI1
aI1
aI1
aI0
aI4
aI3
aI2
aI14
aI9
aI57
aI8
aI21
aI17
aI14
aI8
aI1
aI0
aI0
aI0
aI36
aI0
aI18
aI0
aI0
aI0
aI0
aI0
aI0
aI53
aI0
aI0
aI0
aI24
aI10
aI0
aI0
aI0
asS'PursueBehavior'
p10
(lp11
I16
aI17
aI8
aI34
aI32
aI30
aI0
aI12
aI46
aI1
aI0
aI0
aI0
aI0
aI0
aI16
aI26
aI1
aI4
aI5
aI16
aI1
aI0
aI2
aI2
aI0
aI0
aI1
aI0
aI1
aI1
aI0
aI2
aI39
aI2
aI13
aI1
aI1
aI1
aI1
aI2
aI1
aI0
aI1
aI0
aI3
aI3
aI1
aI0
aI5
aI28
aI23
aI8
aI43
aI14
aI8
aI23
aI20
aI8
aI62
aI63
aI36
aI5
aI7
aI6
aI33
aI8
aI1
aI5
aI53
aI0
aI1
aI37
aI22
aI0
aI0
aI1
aI13
aI1
aI1
aI3
aI0
aI2
aI14
aI2
aI5
aI1
aI2
aI0
aI0
aI2
aI1
aI0
aI1
aI0
aI1
aI1
aI2
aI1
aI9
aI15
aI18
aI24
aI16
aI13
aI8
aI38
aI15
aI14
aI46
aI41
aI1
aI0
aI0
aI0
asS'SeekBehavior'
p12
(lp13
I14
aI55
aI0
aI16
aI18
aI46
aI56
aI41
aI11
aI23
aI12
aI13
aI17
aI14
aI21
aI52
aI35
aI12
aI72
aI63
aI11
aI11
aI8
aI38
aI20
aI9
aI12
aI25
aI8
aI21
aI10
aI9
aI33
aI38
aI24
aI54
aI19
aI56
aI13
aI35
aI12
aI37
aI27
aI18
aI36
aI21
aI44
aI29
aI24
aI42
aI36
aI1
aI2
aI9
aI0
aI2
aI1
aI1
aI2
aI2
aI7
aI15
aI57
aI6
aI2
aI27
aI23
aI1
aI13
aI15
aI16
aI15
aI41
aI45
aI9
aI14
aI22
aI23
aI22
aI17
aI50
aI12
aI54
aI41
aI35
aI100
aI2
aI3
aI11
aI2
aI41
aI19
aI32
aI21
aI17
aI11
aI30
aI40
aI14
aI35
aI2
aI0
aI2
aI4
aI2
aI0
aI30
aI2
aI0
aI0
aI33
aI34
aI28
aI9
aI18
assI2
(dp14
S'FleeBehavior'
p15
(lp16
I13
aI32
aI0
aI5
aI29
aI22
aI10
aI48
aI48
aI1
aI1
aI0
aI0
aI0
aI1
aI24
aI20
aI1
aI19
aI9
aI15
aI2
aI0
aI2
aI16
aI5
aI4
aI8
aI2
aI9
aI0
aI0
aI2
aI53
aI1
aI33
aI0
aI3
aI0
aI3
aI1
aI0
aI0
aI0
aI1
aI2
aI4
aI0
aI1
aI14
aI38
aI1
aI2
aI1
aI0
aI0
aI0
aI0
aI0
aI17
aI14
aI25
aI16
aI19
aI17
aI21
aI14
aI0
aI0
aI2
aI0
aI0
aI2
aI4
aI0
aI0
aI1
aI2
aI1
aI1
aI1
aI0
aI34
aI0
aI0
aI31
aI0
aI3
aI0
aI1
aI22
aI0
aI1
aI0
aI0
aI1
aI3
aI4
aI0
aI0
aI0
aI0
aI0
aI0
aI0
aI0
aI0
aI0
aI0
aI0
aI0
aI0
aI0
aI0
aI0
asS'PursueBehavior'
p17
(lp18
I18
aI42
aI8
aI32
aI7
aI40
aI26
aI4
aI5
aI22
aI12
aI13
aI15
aI13
aI20
aI51
aI41
aI11
aI57
aI47
aI13
aI11
aI8
aI38
aI7
aI4
aI8
aI18
aI7
aI12
aI12
aI8
aI33
aI27
aI24
aI27
aI7
aI18
aI14
aI27
aI7
aI26
aI23
aI16
aI34
aI22
aI38
aI31
aI25
aI65
aI19
aI6
aI3
aI3
aI7
aI6
aI15
aI17
aI12
aI55
aI70
aI19
aI36
aI9
aI13
aI18
aI21
aI10
aI8
aI18
aI12
aI17
aI26
aI50
aI9
aI14
aI20
aI29
aI20
aI17
aI19
aI12
aI23
aI29
aI27
aI21
aI7
aI9
aI12
aI18
aI23
aI9
aI17
aI13
aI9
aI4
aI9
aI28
aI15
aI46
aI17
aI18
aI26
aI20
aI15
aI8
aI71
aI17
aI14
aI46
aI36
aI1
aI2
aI2
aI0
asS'SeekBehavior'
p19
(lp20
I13
aI4
aI0
aI22
aI15
aI53
aI36
aI19
aI7
aI1
aI0
aI0
aI2
aI1
aI2
aI26
aI2
aI1
aI2
aI76
aI0
aI0
aI0
aI1
aI0
aI0
aI0
aI1
aI0
aI1
aI1
aI1
aI0
aI13
aI1
aI35
aI14
aI41
aI1
aI23
aI7
aI13
aI5
aI3
aI2
aI1
aI7
aI2
aI4
aI42
aI17
aI17
aI5
aI56
aI7
aI4
aI11
aI4
aI0
aI18
aI9
aI22
aI71
aI13
aI21
aI81
aI19
aI6
aI30
aI51
aI4
aI0
aI51
aI40
aI0
aI0
aI2
aI6
aI3
aI1
aI34
aI0
aI3
aI28
aI12
aI67
aI5
aI50
aI7
aI4
aI15
aI25
aI22
aI10
aI8
aI7
aI19
aI46
aI0
aI16
aI0
aI0
aI0
aI0
aI0
aI0
aI50
aI0
aI0
aI0
aI62
aI44
aI26
aI7
aI18
assI3
(dp21
S'FleeBehavior'
p22
(lp23
I16
aI16
aI0
aI14
aI5
aI46
aI32
aI4
aI14
aI19
aI12
aI12
aI15
aI12
aI23
aI46
aI28
aI9
aI15
aI35
aI2
aI1
aI0
aI0
aI1
aI0
aI1
aI2
aI1
aI0
aI0
aI1
aI1
aI25
aI0
aI30
aI1
aI19
aI0
aI17
aI0
aI3
aI1
aI2
aI4
aI1
aI1
aI28
aI29
aI114
aI10
aI4
aI1
aI33
aI0
aI0
aI2
aI2
aI1
aI19
aI40
aI46
aI95
aI20
aI3
aI52
aI35
aI15
aI35
aI64
aI10
aI13
aI59
aI52
aI0
aI1
aI2
aI9
aI1
aI0
aI11
aI0
aI1
aI15
aI4
aI50
aI0
aI0
aI0
aI0
aI5
aI5
aI12
aI2
aI1
aI0
aI1
aI40
aI0
aI10
aI0
aI0
aI0
aI0
aI0
aI0
aI55
aI0
aI0
aI0
aI4
aI0
aI0
aI0
aI0
asS'PursueBehavior'
p24
(lp25
I15
aI14
aI0
aI8
aI8
aI30
aI17
aI29
aI44
aI2
aI1
aI1
aI1
aI1
aI0
aI28
aI31
aI0
aI10
aI5
aI6
aI9
aI7
aI36
aI21
aI9
aI9
aI22
aI8
aI20
aI13
aI8
aI32
aI66
aI24
aI37
aI13
aI19
aI14
aI31
aI11
aI28
aI18
aI14
aI11
aI4
aI11
aI0
aI0
aI1
aI31
aI2
aI1
aI2
aI0
aI0
aI1
aI2
aI0
aI1
aI12
aI3
aI10
aI1
aI7
aI14
aI1
aI1
aI2
aI2
aI0
aI1
aI1
aI14
aI0
aI0
aI0
aI5
aI0
aI0
aI6
aI0
aI12
aI2
aI2
aI19
aI3
aI3
aI2
aI1
aI11
aI1
aI1
aI0
aI0
aI0
aI1
aI3
aI0
aI3
aI0
aI0
aI0
aI0
aI0
aI0
aI7
aI0
aI0
aI0
aI7
aI0
aI0
aI0
aI0
asS'SeekBehavior'
p26
(lp27
I13
aI48
aI8
aI36
aI37
aI39
aI22
aI38
aI1
aI2
aI0
aI0
aI0
aI0
aI0
aI27
aI3
aI3
aI53
aI92
aI20
aI2
aI0
aI5
aI1
aI0
aI2
aI3
aI0
aI1
aI0
aI0
aI1
aI2
aI2
aI28
aI7
aI24
aI1
aI5
aI4
aI7
aI8
aI2
aI22
aI20
aI37
aI5
aI1
aI6
aI33
aI18
aI8
aI25
aI13
aI10
aI23
aI17
aI11
aI69
aI41
aI17
aI18
aI19
aI40
aI54
aI18
aI0
aI1
aI4
aI6
aI3
aI19
aI27
aI9
aI13
aI20
aI23
aI23
aI19
aI37
aI12
aI47
aI40
aI33
aI50
aI9
aI59
aI17
aI22
aI44
aI28
aI27
aI20
aI16
aI12
aI28
aI34
aI15
aI49
aI17
aI18
aI26
aI20
aI15
aI7
aI59
aI17
aI14
aI46
aI87
aI45
aI27
aI8
aI18
assI4
(dp28
S'FleeBehavior'
p29
(lp30
I14
aI38
aI7
aI32
aI30
aI44
aI1
aI8
aI43
aI2
aI1
aI0
aI1
aI0
aI0
aI43
aI26
aI0
aI27
aI21
aI9
aI0
aI0
aI1
aI0
aI0
aI1
aI1
aI0
aI0
aI0
aI0
aI0
aI17
aI1
aI53
aI5
aI60
aI15
aI46
aI11
aI24
aI22
aI17
aI35
aI16
aI30
aI3
aI25
aI61
aI9
aI21
aI8
aI45
aI1
aI0
aI0
aI1
aI3
aI24
aI64
aI56
aI95
aI4
aI9
aI62
aI13
aI11
aI19
aI4
aI2
aI0
aI16
aI26
aI1
aI1
aI1
aI3
aI0
aI1
aI2
aI0
aI31
aI3
aI0
aI18
aI0
aI1
aI0
aI0
aI26
aI0
aI0
aI0
aI2
aI4
aI0
aI4
aI0
aI3
aI0
aI0
aI0
aI0
aI0
aI0
aI0
aI0
aI0
aI0
aI4
aI2
aI0
aI0
aI0
asS'PursueBehavior'
p31
(lp32
I10
aI8
aI1
aI10
aI13
aI32
aI1
aI1
aI14
aI21
aI12
aI13
aI14
aI13
aI23
aI31
aI32
aI10
aI40
aI68
aI16
aI12
aI7
aI40
aI22
aI8
aI10
aI24
aI9
aI21
aI12
aI9
aI34
aI74
aI24
aI21
aI15
aI1
aI0
aI5
aI4
aI14
aI5
aI0
aI1
aI9
aI14
aI10
aI5
aI46
aI35
aI3
aI2
aI3
aI0
aI2
aI2
aI2
aI1
aI3
aI26
aI5
aI14
aI4
aI13
aI31
aI14
aI5
aI18
aI16
aI12
aI17
aI36
aI37
aI8
aI13
aI19
aI17
aI24
aI18
aI16
aI11
aI22
aI44
aI37
aI59
aI12
aI24
aI17
aI23
aI26
aI33
aI36
aI20
aI14
aI7
aI29
aI60
aI15
aI32
aI17
aI18
aI26
aI20
aI15
aI7
aI63
aI17
aI14
aI46
aI24
aI0
aI0
aI0
aI0
asS'SeekBehavior'
p33
(lp34
I20
aI32
aI0
aI16
aI7
aI39
aI69
aI62
aI2
aI0
aI0
aI0
aI1
aI0
aI0
aI27
aI4
aI2
aI11
aI43
aI3
aI0
aI0
aI0
aI1
aI1
aI1
aI2
aI0
aI0
aI1
aI0
aI0
aI2
aI1
aI21
aI1
aI1
aI0
aI2
aI0
aI0
aI0
aI1
aI1
aI0
aI5
aI20
aI0
aI14
aI29
aI0
aI0
aI12
aI12
aI8
aI24
aI18
aI8
aI62
aI3
aI5
aI14
aI32
aI28
aI27
aI27
aI0
aI1
aI50
aI2
aI0
aI27
aI30
aI0
aI0
aI2
aI17
aI0
aI0
aI36
aI1
aI7
aI10
aI2
aI42
aI0
aI36
aI2
aI0
aI8
aI1
aI4
aI2
aI1
aI1
aI1
aI13
aI0
aI27
aI0
aI0
aI0
aI0
aI0
aI0
aI58
aI0
aI0
aI0
aI70
aI43
aI27
aI8
aI18
asss.