(dp0
S'learn_scores'
p1
(lp2
F-385.0
aF-354.0
aF-196.0
aF-303.0
aF-325.0
aF-440.0
aF-383.0
aF-411.0
aF-419.0
aF-384.0
aF320.0
aF-356.0
aF-293.0
aF-335.0
aF-395.0
aF-455.0
aF-365.0
aF161.0
aF-387.0
aF-459.0
aF-414.0
aF-389.0
aF-354.0
aF-319.0
aF-460.0
aF-372.0
aF-429.0
aF-324.0
aF-419.0
aF-393.0
aF-341.0
aF-287.0
aF-368.0
aF-430.0
aF-372.0
aF-376.0
aF-358.0
aF-348.0
aF-69.0
aF-375.0
aF-411.0
aF74.0
aF53.0
aF-390.0
aF-348.0
aF-427.0
aF-443.0
aF6.0
aF-370.0
aF-387.0
aF-381.0
aF-405.0
aF-436.0
aF-275.0
aF-338.0
aF-137.0
aF-360.0
aF-399.0
aF-399.0
aF-300.0
aF-272.0
aF-336.0
aF-274.0
aF-360.0
aF-377.0
aF-261.0
aF-368.0
aF-297.0
aF-317.0
aF-422.0
aF-413.0
aF-332.0
aF-428.0
aF-314.0
aF-377.0
aF-379.0
aF-360.0
aF-370.0
aF-407.0
aF-49.0
aF-423.0
aF-230.0
aF-345.0
aF-354.0
aF-403.0
aF-390.0
aF-361.0
aF-393.0
aF-340.0
aF-312.0
aF-422.0
aF-419.0
aF-373.0
aF-378.0
aF-426.0
aF-330.0
aF-340.0
aF-400.0
aF-429.0
aF-421.0
asS'test_scores'
p3
(lp4
F-412.0
aF-350.0
aF-344.0
aF-430.0
aF-380.0
aF46.0
aF-403.0
aF-402.0
aF-448.0
aF-429.0
aF-362.0
aF-389.0
aF139.0
aF-436.0
aF-400.0
asS'behavior_count'
p5
(dp6
I1
(dp7
S'FleeBehavior'
p8
(lp9
I6
aI0
aI5
aI1
aI2
aI0
aI0
aI3
aI1
aI16
aI21
aI2
aI2
aI10
aI21
aI21
aI13
aI21
aI0
aI1
aI0
aI2
aI1
aI1
aI0
aI5
aI1
aI7
aI9
aI13
aI38
aI23
aI4
aI0
aI1
aI3
aI5
aI1
aI5
aI0
aI0
aI1
aI7
aI0
aI2
aI1
aI0
aI5
aI2
aI1
aI0
aI2
aI0
aI2
aI1
aI1
aI0
aI2
aI1
aI2
aI2
aI2
aI0
aI2
aI2
aI2
aI1
aI5
aI2
aI0
aI0
aI0
aI1
aI3
aI0
aI1
aI1
aI0
aI0
aI1
aI2
aI2
aI0
aI2
aI0
aI0
aI2
aI1
aI0
aI0
aI0
aI1
aI2
aI2
aI2
aI1
aI0
aI0
aI1
aI3
aI0
aI0
aI0
aI0
aI0
aI67
aI23
aI12
aI19
aI9
aI23
aI20
aI79
aI27
aI20
asS'PursueBehavior'
p10
(lp11
I6
aI22
aI113
aI3
aI1
aI6
aI1
aI0
aI0
aI0
aI21
aI2
aI4
aI1
aI2
aI1
aI0
aI1
aI0
aI3
aI0
aI1
aI0
aI2
aI1
aI2
aI0
aI5
aI0
aI0
aI1
aI2
aI2
aI0
aI1
aI1
aI4
aI3
aI4
aI3
aI3
aI5
aI37
aI12
aI22
aI1
aI1
aI17
aI0
aI0
aI0
aI1
aI1
aI1
aI0
aI1
aI0
aI2
aI0
aI2
aI2
aI0
aI3
aI17
aI4
aI33
aI20
aI28
aI13
aI4
aI1
aI0
aI0
aI0
aI0
aI0
aI4
aI5
aI0
aI7
aI0
aI2
aI1
aI2
aI1
aI1
aI0
aI1
aI1
aI1
aI1
aI0
aI0
aI3
aI1
aI1
aI1
aI2
aI1
aI3
aI0
aI0
aI0
aI0
aI0
aI0
aI0
aI0
aI0
aI0
aI0
aI0
aI2
aI0
aI0
asS'SeekBehavior'
p12
(lp13
I3
aI3
aI28
aI39
aI32
aI25
aI22
aI18
aI8
aI9
aI48
aI23
aI37
aI35
aI2
aI4
aI3
aI27
aI28
aI26
aI14
aI47
aI33
aI26
aI30
aI46
aI18
aI52
aI0
aI1
aI2
aI2
aI23
aI21
aI31
aI43
aI49
aI35
aI30
aI12
aI9
aI50
aI43
aI8
aI4
aI16
aI22
aI83
aI39
aI17
aI22
aI12
aI26
aI53
aI17
aI26
aI20
aI15
aI18
aI56
aI58
aI24
aI51
aI11
aI11
aI7
aI7
aI24
aI22
aI8
aI13
aI43
aI8
aI32
aI38
aI19
aI35
aI26
aI27
aI81
aI11
aI57
aI25
aI31
aI13
aI19
aI19
aI21
aI30
aI31
aI12
aI9
aI22
aI23
aI33
aI28
aI20
aI29
aI7
aI26
aI12
aI21
aI24
aI21
aI21
aI27
aI0
aI0
aI0
aI0
aI0
aI0
aI0
aI0
aI0
assI2
(dp14
S'FleeBehavior'
p15
(lp16
I6
aI21
aI57
aI2
aI3
aI1
aI1
aI2
aI0
aI1
aI19
aI0
aI19
aI1
aI0
aI10
aI9
aI17
aI22
aI30
aI13
aI48
aI33
aI28
aI28
aI40
aI3
aI51
aI8
aI14
aI32
aI9
aI12
aI14
aI12
aI11
aI20
aI11
aI21
aI3
aI8
aI13
aI23
aI19
aI26
aI17
aI19
aI27
aI22
aI9
aI13
aI0
aI7
aI21
aI8
aI4
aI14
aI8
aI5
aI9
aI12
aI7
aI32
aI26
aI15
aI25
aI21
aI32
aI27
aI11
aI12
aI40
aI6
aI33
aI35
aI18
aI37
aI31
aI26
aI49
aI13
aI21
aI24
aI33
aI12
aI18
aI18
aI20
aI29
aI30
aI12
aI7
aI22
aI22
aI31
aI29
aI18
aI26
aI7
aI30
aI12
aI21
aI24
aI21
aI21
aI86
aI23
aI12
aI19
aI9
aI23
aI20
aI81
aI27
aI20
asS'PursueBehavior'
p17
(lp18
I4
aI0
aI40
aI6
aI30
aI27
aI21
aI16
aI3
aI2
aI22
aI27
aI22
aI43
aI25
aI15
aI6
aI16
aI5
aI0
aI1
aI2
aI0
aI1
aI3
aI11
aI15
aI12
aI1
aI0
aI8
aI11
aI0
aI0
aI0
aI9
aI31
aI27
aI17
aI12
aI3
aI42
aI59
aI0
aI2
aI1
aI3
aI74
aI10
aI8
aI6
aI15
aI19
aI30
aI4
aI16
aI6
aI11
aI14
aI50
aI49
aI18
aI20
aI3
aI2
aI16
aI6
aI24
aI10
aI0
aI0
aI1
aI2
aI1
aI2
aI1
aI1
aI0
aI0
aI36
aI0
aI39
aI1
aI2
aI2
aI1
aI1
aI3
aI2
aI2
aI1
aI0
aI1
aI3
aI0
aI0
aI2
aI3
aI2
aI0
aI0
aI0
aI0
aI0
aI0
aI8
aI0
aI0
aI0
aI0
aI0
aI0
aI0
aI0
aI0
asS'SeekBehavior'
p19
(lp20
I5
aI4
aI49
aI35
aI2
aI3
aI1
aI3
aI6
aI22
aI49
aI0
aI2
aI2
aI0
aI1
aI1
aI16
aI1
aI0
aI0
aI0
aI1
aI0
aI0
aI1
aI1
aI1
aI0
aI0
aI1
aI7
aI16
aI7
aI21
aI27
aI7
aI0
aI1
aI0
aI0
aI1
aI5
aI1
aI0
aI0
aI1
aI4
aI8
aI1
aI2
aI0
aI1
aI5
aI6
aI7
aI0
aI0
aI0
aI1
aI1
aI1
aI2
aI1
aI0
aI1
aI1
aI1
aI0
aI1
aI1
aI1
aI1
aI1
aI1
aI0
aI2
aI0
aI1
aI4
aI0
aI1
aI0
aI0
aI0
aI1
aI2
aI0
aI0
aI0
aI0
aI3
aI0
aI3
aI5
aI1
aI1
aI2
aI0
aI2
aI0
aI0
aI0
aI0
aI0
aI0
aI0
aI0
aI0
aI0
aI0
aI0
aI0
aI0
aI0
assI3
(dp21
S'FleeBehavior'
p22
(lp23
I6
aI22
aI64
aI23
aI0
aI3
aI21
aI20
aI6
aI25
aI38
aI1
aI7
aI27
aI6
aI7
aI0
aI2
aI3
aI0
aI1
aI44
aI28
aI20
aI21
aI26
aI6
aI28
aI1
aI4
aI8
aI12
aI2
aI1
aI5
aI7
aI33
aI9
aI17
aI6
aI10
aI12
aI45
aI20
aI24
aI16
aI23
aI61
aI38
aI17
aI19
aI15
aI25
aI50
aI18
aI18
aI17
aI18
aI18
aI47
aI51
aI24
aI47
aI29
aI14
aI25
aI13
aI29
aI8
aI3
aI6
aI10
aI8
aI32
aI30
aI14
aI38
aI25
aI19
aI16
aI12
aI17
aI10
aI14
aI10
aI11
aI16
aI17
aI27
aI16
aI11
aI9
aI21
aI27
aI32
aI29
aI16
aI28
aI9
aI27
aI12
aI21
aI24
aI21
aI20
aI94
aI23
aI12
aI18
aI9
aI23
aI19
aI81
aI26
aI20
asS'PursueBehavior'
p24
(lp25
I3
aI1
aI39
aI8
aI1
aI4
aI1
aI1
aI2
aI0
aI27
aI25
aI33
aI19
aI18
aI12
aI16
aI43
aI2
aI2
aI1
aI1
aI5
aI8
aI5
aI19
aI0
aI0
aI1
aI0
aI0
aI0
aI1
aI2
aI1
aI1
aI20
aI1
aI4
aI9
aI0
aI13
aI35
aI0
aI1
aI1
aI0
aI4
aI1
aI0
aI1
aI0
aI2
aI4
aI0
aI3
aI2
aI1
aI1
aI11
aI9
aI1
aI4
aI1
aI1
aI2
aI3
aI2
aI3
aI1
aI0
aI3
aI1
aI1
aI2
aI1
aI1
aI3
aI2
aI44
aI0
aI40
aI13
aI19
aI3
aI7
aI1
aI2
aI3
aI8
aI0
aI0
aI1
aI0
aI3
aI0
aI2
aI1
aI0
aI2
aI0
aI0
aI0
aI0
aI0
aI0
aI0
aI0
aI0
aI0
aI0
aI0
aI0
aI0
aI0
asS'SeekBehavior'
p26
(lp27
I6
aI1
aI43
aI12
aI34
aI24
aI1
aI0
aI1
aI0
aI25
aI1
aI3
aI0
aI1
aI6
aI0
aI4
aI23
aI27
aI12
aI5
aI1
aI1
aI4
aI7
aI13
aI36
aI7
aI9
aI33
aI15
aI25
aI18
aI27
aI39
aI5
aI28
aI18
aI0
aI1
aI31
aI7
aI0
aI3
aI0
aI0
aI40
aI1
aI1
aI1
aI0
aI0
aI2
aI0
aI6
aI1
aI0
aI0
aI2
aI2
aI1
aI3
aI0
aI2
aI15
aI12
aI26
aI26
aI8
aI7
aI29
aI0
aI2
aI6
aI4
aI1
aI3
aI6
aI29
aI1
aI4
aI2
aI2
aI1
aI2
aI4
aI4
aI0
aI8
aI1
aI0
aI1
aI1
aI1
aI1
aI2
aI2
aI0
aI2
aI0
aI0
aI0
aI0
aI0
aI0
aI0
aI0
aI0
aI0
aI0
aI0
aI0
aI0
aI0
assI4
(dp28
S'FleeBehavior'
p29
(lp30
I2
aI1
aI47
aI7
aI0
aI5
aI1
aI0
aI0
aI2
aI21
aI5
aI2
aI8
aI2
aI22
aI13
aI29
aI27
aI28
aI12
aI44
aI30
aI24
aI16
aI2
aI1
aI4
aI1
aI0
aI1
aI4
aI27
aI16
aI6
aI32
aI38
aI8
aI12
aI5
aI0
aI36
aI38
aI0
aI1
aI2
aI0
aI33
aI0
aI0
aI0
aI0
aI1
aI3
aI1
aI7
aI0
aI0
aI0
aI0
aI1
aI1
aI3
aI3
aI0
aI0
aI0
aI0
aI0
aI1
aI2
aI1
aI0
aI1
aI1
aI0
aI0
aI1
aI0
aI1
aI1
aI5
aI1
aI1
aI0
aI0
aI0
aI1
aI0
aI1
aI1
aI0
aI1
aI3
aI1
aI0
aI2
aI3
aI0
aI1
aI0
aI14
aI14
aI11
aI12
aI86
aI23
aI12
aI18
aI9
aI22
aI19
aI77
aI26
aI20
asS'PursueBehavior'
p31
(lp32
I5
aI1
aI48
aI31
aI34
aI23
aI21
aI21
aI9
aI23
aI53
aI19
aI28
aI31
aI20
aI2
aI3
aI19
aI0
aI0
aI1
aI3
aI2
aI4
aI1
aI2
aI12
aI22
aI0
aI3
aI7
aI5
aI1
aI3
aI5
aI11
aI17
aI15
aI25
aI10
aI11
aI17
aI33
aI17
aI0
aI0
aI2
aI33
aI36
aI16
aI19
aI14
aI25
aI48
aI10
aI7
aI15
aI3
aI8
aI12
aI18
aI2
aI16
aI5
aI2
aI12
aI2
aI33
aI6
aI8
aI10
aI40
aI8
aI33
aI35
aI19
aI39
aI28
aI26
aI86
aI12
aI55
aI24
aI32
aI14
aI18
aI20
aI21
aI27
aI29
aI10
aI9
aI21
aI24
aI31
aI29
aI18
aI28
aI9
aI28
aI12
aI7
aI10
aI10
aI8
aI8
aI0
aI0
aI0
aI0
aI0
aI0
aI4
aI0
aI0
asS'SeekBehavior'
p33
(lp34
I8
aI22
aI51
aI5
aI1
aI3
aI1
aI0
aI0
aI0
aI16
aI3
aI13
aI7
aI3
aI1
aI0
aI1
aI0
aI1
aI1
aI2
aI2
aI1
aI13
aI48
aI6
aI38
aI8
aI10
aI33
aI18
aI0
aI2
aI22
aI3
aI3
aI15
aI2
aI0
aI0
aI3
aI16
aI3
aI27
aI15
aI21
aI39
aI4
aI2
aI2
aI1
aI1
aI4
aI7
aI13
aI5
aI16
aI11
aI48
aI43
aI23
aI35
aI22
aI15
aI29
aI26
aI24
aI31
aI3
aI1
aI1
aI1
aI0
aI1
aI0
aI1
aI1
aI1
aI2
aI0
aI1
aI0
aI1
aI0
aI2
aI1
aI1
aI3
aI2
aI1
aI0
aI1
aI1
aI4
aI1
aI0
aI0
aI0
aI2
aI0
aI0
aI0
aI0
aI0
aI0
aI0
aI0
aI0
aI0
aI0
aI0
aI0
aI0
aI0
asss.