(dp0
S'learn_scores'
p1
(lp2
F-179.0
aF-483.0
aF-372.0
aF-264.0
aF-268.0
aF-476.0
aF-398.0
aF-161.0
aF-2.0
aF-349.0
aF-347.0
aF-404.0
aF-377.0
aF-381.0
aF-463.0
aF-440.0
aF-393.0
aF-426.0
aF-398.0
aF-429.0
aF-386.0
aF80.0
aF-429.0
aF-387.0
aF-437.0
aF-282.0
aF-416.0
aF147.0
aF-227.0
aF-291.0
aF-402.0
aF-460.0
aF-453.0
aF-45.0
aF215.0
aF-397.0
aF-344.0
aF21.0
aF-436.0
aF-423.0
aF-415.0
aF-370.0
aF-404.0
aF-354.0
aF-69.0
aF-355.0
aF-417.0
aF-452.0
aF-404.0
aF-427.0
aF-417.0
aF-316.0
aF-230.0
aF-355.0
aF-371.0
aF-398.0
aF-375.0
aF-404.0
aF-150.0
aF-437.0
aF46.0
aF-404.0
aF-429.0
aF-401.0
aF-436.0
aF-417.0
aF-167.0
aF-370.0
aF-455.0
aF-400.0
aF-345.0
aF-404.0
aF-278.0
aF388.0
aF-98.0
aF-371.0
aF-441.0
aF-368.0
aF-427.0
aF-215.0
aF-422.0
aF-454.0
aF-356.0
aF-411.0
aF-73.0
aF-406.0
aF-376.0
aF-339.0
aF-404.0
aF-134.0
aF-284.0
aF-402.0
aF-434.0
aF-457.0
aF-430.0
aF-355.0
aF-430.0
aF-411.0
aF-242.0
aF-369.0
asS'test_scores'
p3
(lp4
F-429.0
aF-381.0
aF-282.0
aF-429.0
aF-110.0
aF-146.0
aF-306.0
aF-396.0
aF-403.0
aF-369.0
aF-157.0
aF-455.0
aF-379.0
aF-371.0
aF-437.0
asS'behavior_count'
p5
(dp6
I1
(dp7
S'FleeBehavior'
p8
(lp9
I31
aI0
aI17
aI18
aI35
aI10
aI15
aI34
aI42
aI2
aI0
aI1
aI1
aI3
aI0
aI0
aI3
aI1
aI4
aI17
aI5
aI21
aI1
aI2
aI1
aI10
aI8
aI47
aI5
aI7
aI1
aI3
aI1
aI49
aI35
aI4
aI4
aI19
aI1
aI1
aI1
aI2
aI5
aI4
aI35
aI6
aI3
aI0
aI3
aI1
aI4
aI13
aI21
aI9
aI6
aI19
aI33
aI13
aI28
aI2
aI5
aI2
aI1
aI0
aI2
aI4
aI6
aI3
aI5
aI4
aI14
aI23
aI65
aI79
aI43
aI15
aI13
aI20
aI15
aI49
aI12
aI12
aI15
aI24
aI69
aI28
aI22
aI21
aI18
aI27
aI10
aI9
aI9
aI21
aI13
aI39
aI9
aI5
aI47
aI23
aI10
aI13
aI23
aI11
aI111
aI24
aI0
aI0
aI0
aI0
aI24
aI0
aI0
aI0
aI0
asS'PursueBehavior'
p10
(lp11
I31
aI7
aI12
aI17
aI20
aI2
aI14
aI63
aI39
aI66
aI25
aI10
aI4
aI3
aI7
aI20
aI14
aI1
aI9
aI0
aI6
aI68
aI49
aI24
aI16
aI42
aI37
aI32
aI97
aI62
aI59
aI4
aI6
aI29
aI180
aI50
aI40
aI68
aI24
aI20
aI14
aI27
aI69
aI29
aI104
aI46
aI33
aI13
aI38
aI26
aI13
aI31
aI23
aI27
aI15
aI15
aI24
aI9
aI61
aI34
aI112
aI22
aI28
aI19
aI31
aI22
aI79
aI27
aI20
aI45
aI31
aI10
aI31
aI33
aI70
aI35
aI18
aI35
aI5
aI28
aI11
aI12
aI13
aI4
aI25
aI5
aI23
aI10
aI10
aI25
aI44
aI21
aI15
aI6
aI5
aI21
aI1
aI16
aI13
aI4
aI11
aI8
aI24
aI9
aI42
aI40
aI37
aI26
aI24
aI39
aI77
aI25
aI40
aI32
aI28
asS'SeekBehavior'
p12
(lp13
I38
aI6
aI13
aI29
aI23
aI14
aI9
aI44
aI11
aI2
aI3
aI14
aI22
aI16
aI17
aI10
aI6
aI15
aI15
aI12
aI15
aI51
aI0
aI1
aI0
aI1
aI2
aI45
aI6
aI2
aI2
aI4
aI6
aI47
aI21
aI4
aI1
aI33
aI2
aI2
aI0
aI2
aI1
aI2
aI50
aI3
aI2
aI0
aI4
aI0
aI1
aI3
aI17
aI10
aI21
aI5
aI8
aI12
aI32
aI2
aI38
aI0
aI0
aI2
aI3
aI1
aI2
aI0
aI1
aI1
aI1
aI1
aI12
aI61
aI25
aI2
aI0
aI24
aI8
aI38
aI0
aI0
aI19
aI4
aI49
aI4
aI1
aI8
aI6
aI32
aI1
aI2
aI1
aI1
aI2
aI6
aI0
aI1
aI12
aI2
aI9
aI1
aI5
aI0
aI7
aI13
aI0
aI0
aI0
aI0
aI16
aI0
aI0
aI0
aI0
assI2
(dp14
S'FleeBehavior'
p15
(lp16
I41
aI0
aI1
aI8
aI55
aI1
aI2
aI36
aI28
aI3
aI4
aI23
aI26
aI19
aI23
aI27
aI22
aI17
aI28
aI28
aI26
aI101
aI3
aI0
aI0
aI4
aI0
aI18
aI22
aI6
aI10
aI11
aI11
aI84
aI160
aI52
aI0
aI13
aI1
aI2
aI1
aI0
aI2
aI2
aI116
aI29
aI31
aI13
aI43
aI26
aI16
aI41
aI55
aI43
aI38
aI34
aI61
aI32
aI114
aI37
aI137
aI22
aI24
aI19
aI31
aI25
aI83
aI30
aI26
aI49
aI44
aI32
aI93
aI102
aI117
aI18
aI1
aI3
aI0
aI43
aI1
aI0
aI1
aI0
aI19
aI2
aI2
aI1
aI1
aI16
aI1
aI3
aI3
aI0
aI2
aI2
aI0
aI0
aI1
aI0
aI0
aI0
aI0
aI0
aI12
aI1
aI0
aI0
aI0
aI0
aI31
aI24
aI37
aI27
aI27
asS'PursueBehavior'
p17
(lp18
I24
aI0
aI8
aI34
aI13
aI23
aI2
aI26
aI33
aI67
aI20
aI0
aI0
aI1
aI1
aI2
aI0
aI0
aI0
aI0
aI0
aI20
aI3
aI1
aI1
aI3
aI6
aI84
aI14
aI7
aI0
aI0
aI0
aI4
aI28
aI1
aI2
aI19
aI2
aI0
aI1
aI2
aI0
aI1
aI7
aI9
aI0
aI0
aI2
aI0
aI1
aI2
aI2
aI1
aI3
aI1
aI3
aI1
aI3
aI1
aI1
aI1
aI1
aI2
aI3
aI1
aI2
aI0
aI0
aI1
aI1
aI1
aI6
aI23
aI10
aI2
aI0
aI2
aI1
aI5
aI0
aI1
aI3
aI2
aI3
aI0
aI0
aI1
aI2
aI11
aI1
aI3
aI2
aI2
aI0
aI0
aI1
aI2
aI1
aI1
aI0
aI0
aI0
aI0
aI7
aI18
aI0
aI0
aI0
aI0
aI12
aI0
aI0
aI0
aI0
asS'SeekBehavior'
p19
(lp20
I35
aI13
aI33
aI22
aI10
aI2
aI34
aI79
aI31
aI0
aI4
aI1
aI1
aI1
aI0
aI1
aI1
aI0
aI0
aI1
aI0
aI19
aI44
aI26
aI16
aI45
aI40
aI22
aI72
aI58
aI52
aI0
aI2
aI37
aI48
aI4
aI43
aI87
aI24
aI21
aI13
aI29
aI72
aI32
aI66
aI17
aI6
aI0
aI0
aI1
aI1
aI3
aI3
aI1
aI1
aI3
aI1
aI1
aI4
aI0
aI17
aI1
aI4
aI0
aI2
aI1
aI2
aI0
aI0
aI0
aI1
aI1
aI9
aI47
aI11
aI32
aI30
aI74
aI26
aI67
aI21
aI23
aI43
aI29
aI121
aI35
aI44
aI37
aI31
aI57
aI53
aI26
aI20
aI25
aI18
aI64
aI9
aI20
aI70
aI28
aI30
aI22
aI52
aI20
aI141
aI58
aI37
aI26
aI24
aI39
aI74
aI1
aI2
aI5
aI1
assI3
(dp21
S'FleeBehavior'
p22
(lp23
I29
aI6
aI6
aI27
aI26
aI14
aI20
aI72
aI42
aI3
aI0
aI12
aI11
aI11
aI15
aI4
aI14
aI12
aI11
aI3
aI5
aI85
aI19
aI18
aI11
aI40
aI24
aI80
aI15
aI14
aI28
aI6
aI8
aI35
aI145
aI13
aI13
aI38
aI0
aI3
aI1
aI0
aI3
aI5
aI42
aI1
aI1
aI0
aI4
aI2
aI2
aI3
aI13
aI3
aI7
aI1
aI20
aI5
aI63
aI36
aI85
aI3
aI1
aI0
aI2
aI2
aI5
aI1
aI1
aI0
aI3
aI0
aI3
aI50
aI122
aI49
aI28
aI75
aI22
aI90
aI13
aI18
aI31
aI15
aI56
aI5
aI3
aI1
aI4
aI4
aI2
aI2
aI0
aI2
aI1
aI2
aI0
aI1
aI6
aI12
aI25
aI22
aI52
aI20
aI158
aI61
aI0
aI0
aI0
aI5
aI35
aI0
aI0
aI0
aI0
asS'PursueBehavior'
p24
(lp25
I24
aI7
aI18
aI20
aI27
aI6
aI12
aI56
aI29
aI4
aI1
aI2
aI8
aI5
aI5
aI9
aI5
aI1
aI4
aI16
aI13
aI36
aI29
aI8
aI6
aI8
aI19
aI39
aI5
aI17
aI12
aI0
aI1
aI50
aI11
aI0
aI3
aI31
aI27
aI19
aI14
aI29
aI66
aI21
aI72
aI21
aI25
aI9
aI34
aI13
aI14
aI29
aI36
aI18
aI21
aI5
aI23
aI12
aI48
aI1
aI16
aI0
aI0
aI1
aI2
aI0
aI2
aI1
aI1
aI2
aI0
aI3
aI2
aI53
aI10
aI1
aI3
aI2
aI1
aI5
aI2
aI1
aI1
aI1
aI75
aI28
aI40
aI38
aI30
aI67
aI1
aI3
aI1
aI0
aI3
aI3
aI0
aI0
aI2
aI1
aI0
aI0
aI0
aI0
aI0
aI0
aI37
aI26
aI23
aI34
aI58
aI0
aI0
aI0
aI0
asS'SeekBehavior'
p26
(lp27
I47
aI0
aI18
aI17
aI25
aI6
aI6
aI13
aI21
aI63
aI26
aI10
aI8
aI5
aI4
aI17
aI4
aI4
aI13
aI10
aI8
aI19
aI1
aI1
aI0
aI4
aI3
aI4
aI87
aI40
aI22
aI4
aI4
aI40
aI80
aI44
aI28
aI50
aI0
aI1
aI0
aI1
aI5
aI8
aI75
aI33
aI11
aI3
aI7
aI12
aI2
aI14
aI11
aI24
aI13
aI32
aI22
aI17
aI9
aI0
aI54
aI21
aI28
aI20
aI32
aI25
aI80
aI28
aI24
aI48
aI42
aI31
aI103
aI69
aI6
aI1
aI0
aI1
aI4
aI20
aI7
aI5
aI14
aI15
aI12
aI4
aI3
aI0
aI0
aI13
aI51
aI27
aI24
aI25
aI16
aI60
aI10
aI20
aI64
aI16
aI4
aI0
aI0
aI0
aI2
aI15
aI0
aI0
aI0
aI0
aI24
aI25
aI39
aI31
aI27
asss.