(dp0
S'learn_scores'
p1
(lp2
F-455.0
aF-394.0
aF-332.0
aF-446.0
aF80.0
aF-364.0
aF-394.0
aF311.0
aF-414.0
aF304.0
aF-177.0
aF-322.0
aF-428.0
aF-73.0
aF-100.0
aF-336.0
aF-152.0
aF-329.0
aF-121.0
aF-394.0
aF-258.0
aF-230.0
aF-169.0
aF-338.0
aF-67.0
aF-437.0
aF-419.0
aF-317.0
aF52.0
aF-357.0
aF146.0
aF-75.0
aF-422.0
aF-378.0
aF-366.0
aF-474.0
aF-257.0
aF-429.0
aF-428.0
aF332.0
aF-337.0
aF-408.0
aF-396.0
aF20.0
aF-256.0
aF-364.0
aF-387.0
aF-94.0
aF-312.0
aF-338.0
aF-447.0
aF-384.0
aF-365.0
aF-83.0
aF-449.0
aF-266.0
aF-304.0
aF-153.0
aF-429.0
aF-80.0
aF-316.0
aF113.0
aF-342.0
aF382.0
aF-364.0
aF-410.0
aF-9.0
aF-243.0
aF-428.0
aF24.0
aF-360.0
aF-181.0
aF-428.0
aF-375.0
aF-314.0
aF-387.0
aF-432.0
aF-371.0
aF-370.0
aF-379.0
aF-372.0
aF-195.0
aF-407.0
aF-154.0
aF-291.0
aF-177.0
aF279.0
aF-419.0
aF-499.0
aF-266.0
aF-296.0
aF-42.0
aF41.0
aF-423.0
aF-5.0
aF-372.0
aF-392.0
aF-343.0
aF-331.0
aF-324.0
asS'test_scores'
p3
(lp4
F-327.0
aF-392.0
aF-404.0
aF-333.0
aF-420.0
aF-285.0
aF103.0
aF359.0
aF-234.0
aF-287.0
aF492.0
aF-316.0
aF-358.0
aF-423.0
aF-281.0
asS'behavior_count'
p5
(dp6
I1
(dp7
S'FleeBehavior'
p8
(lp9
I13
aI37
aI11
aI30
aI101
aI20
aI32
aI42
aI0
aI24
aI65
aI18
aI0
aI37
aI53
aI25
aI43
aI27
aI128
aI3
aI44
aI59
aI46
aI19
aI102
aI0
aI2
aI29
aI73
aI89
aI56
aI13
aI11
aI19
aI45
aI41
aI54
aI9
aI9
aI98
aI41
aI2
aI5
aI69
aI43
aI80
aI17
aI62
aI11
aI11
aI16
aI24
aI51
aI110
aI36
aI58
aI31
aI121
aI19
aI79
aI24
aI81
aI112
aI151
aI37
aI35
aI136
aI13
aI6
aI53
aI33
aI46
aI36
aI14
aI18
aI17
aI60
aI48
aI85
aI93
aI60
aI52
aI36
aI59
aI29
aI113
aI49
aI8
aI77
aI25
aI26
aI10
aI95
aI13
aI70
aI38
aI12
aI41
aI29
aI22
aI7
aI8
aI21
aI36
aI21
aI25
aI34
aI42
aI34
aI13
aI110
aI24
aI17
aI11
aI41
asS'PursueBehavior'
p10
(lp11
I2
aI13
aI3
aI5
aI68
aI2
aI1
aI33
aI1
aI32
aI5
aI2
aI9
aI90
aI43
aI1
aI36
aI1
aI52
aI2
aI1
aI0
aI39
aI0
aI11
aI28
aI7
aI67
aI13
aI3
aI7
aI55
aI1
aI0
aI0
aI0
aI2
aI0
aI0
aI24
aI1
aI0
aI0
aI24
aI2
aI2
aI0
aI3
aI2
aI0
aI1
aI1
aI3
aI0
aI1
aI7
aI0
aI5
aI0
aI10
aI1
aI6
aI5
aI33
aI1
aI2
aI24
aI32
aI3
aI77
aI8
aI27
aI2
aI0
aI1
aI0
aI1
aI1
aI3
aI6
aI2
aI4
aI1
aI2
aI2
aI5
aI2
aI0
aI7
aI44
aI2
aI0
aI10
aI0
aI8
aI2
aI0
aI2
aI2
aI1
aI0
aI0
aI0
aI0
aI0
aI0
aI0
aI0
aI0
aI9
aI4
aI0
aI0
aI0
aI16
asS'SeekBehavior'
p12
(lp13
I11
aI14
aI28
aI2
aI42
aI3
aI1
aI14
aI13
aI70
aI8
aI2
aI0
aI6
aI55
aI0
aI4
aI2
aI42
aI29
aI4
aI1
aI4
aI0
aI14
aI0
aI0
aI2
aI53
aI5
aI22
aI8
aI0
aI0
aI2
aI3
aI2
aI1
aI0
aI7
aI6
aI17
aI61
aI38
aI2
aI3
aI0
aI79
aI50
aI27
aI0
aI0
aI1
aI3
aI2
aI1
aI4
aI7
aI0
aI92
aI1
aI30
aI56
aI65
aI6
aI4
aI39
aI39
aI0
aI47
aI0
aI38
aI0
aI2
aI16
aI1
aI1
aI3
aI3
aI1
aI1
aI40
aI0
aI3
aI0
aI9
aI70
aI2
aI5
aI47
aI9
aI52
aI34
aI1
aI37
aI2
aI0
aI1
aI1
aI1
aI31
aI5
aI3
aI7
aI10
aI81
aI83
aI130
aI50
aI66
aI134
aI32
aI2
aI2
aI114
assI2
(dp14
S'FleeBehavior'
p15
(lp16
I5
aI5
aI1
aI3
aI55
aI14
aI0
aI6
aI1
aI23
aI33
aI22
aI7
aI105
aI99
aI1
aI12
aI3
aI76
aI5
aI0
aI3
aI41
aI2
aI12
aI2
aI0
aI7
aI27
aI18
aI27
aI22
aI1
aI2
aI1
aI0
aI3
aI1
aI0
aI3
aI0
aI0
aI1
aI19
aI2
aI3
aI1
aI89
aI22
aI2
aI3
aI9
aI30
aI63
aI34
aI47
aI21
aI41
aI3
aI97
aI0
aI46
aI66
aI71
aI2
aI1
aI21
aI41
aI1
aI44
aI3
aI40
aI2
aI0
aI2
aI1
aI0
aI2
aI7
aI4
aI2
aI34
aI3
aI9
aI21
aI77
aI39
aI2
aI70
aI82
aI16
aI53
aI88
aI2
aI67
aI0
aI0
aI0
aI1
aI1
aI0
aI0
aI0
aI0
aI0
aI0
aI26
aI58
aI40
aI40
aI44
aI0
aI0
aI0
aI34
asS'PursueBehavior'
p17
(lp18
I19
aI42
aI34
aI33
aI103
aI10
aI33
aI41
aI0
aI10
aI7
aI0
aI2
aI20
aI45
aI24
aI58
aI19
aI127
aI26
aI47
aI56
aI47
aI16
aI106
aI24
aI9
aI89
aI92
aI57
aI32
aI11
aI1
aI6
aI14
aI29
aI11
aI8
aI9
aI103
aI44
aI18
aI61
aI100
aI44
aI72
aI15
aI46
aI33
aI36
aI13
aI14
aI25
aI46
aI3
aI13
aI14
aI64
aI13
aI67
aI22
aI40
aI58
aI148
aI40
aI32
aI145
aI42
aI8
aI130
aI37
aI59
aI36
aI15
aI31
aI15
aI57
aI47
aI82
aI92
aI58
aI56
aI33
aI55
aI9
aI48
aI77
aI8
aI15
aI30
aI19
aI6
aI30
aI12
aI45
aI39
aI12
aI41
aI29
aI20
aI38
aI13
aI24
aI43
aI30
aI105
aI91
aI114
aI44
aI48
aI204
aI56
aI19
aI13
aI137
asS'SeekBehavior'
p19
(lp20
I2
aI17
aI7
aI1
aI52
aI1
aI1
aI42
aI13
aI93
aI37
aI0
aI0
aI8
aI7
aI1
aI13
aI8
aI18
aI3
aI1
aI1
aI1
aI1
aI9
aI2
aI0
aI1
aI20
aI22
aI26
aI42
aI10
aI11
aI31
aI15
aI44
aI0
aI0
aI22
aI3
aI1
aI4
aI11
aI1
aI10
aI1
aI9
aI7
aI0
aI1
aI1
aI0
aI4
aI2
aI6
aI0
aI28
aI3
aI17
aI4
aI31
aI48
aI30
aI2
aI8
aI33
aI1
aI0
aI2
aI0
aI12
aI0
aI0
aI1
aI1
aI5
aI2
aI2
aI4
aI2
aI5
aI1
aI0
aI1
aI2
aI5
aI0
aI4
aI4
aI1
aI3
aI21
aI0
aI3
aI3
aI0
aI2
aI2
aI3
aI0
aI0
aI0
aI0
aI0
aI0
aI0
aI0
aI0
aI0
aI0
aI0
aI0
aI0
aI0
asss.