(dp0
S'learn_scores'
p1
(lp2
F-173.0
aF-412.0
aF-319.0
aF-416.0
aF-35.0
aF-270.0
aF-190.0
aF-183.0
aF-395.0
aF-195.0
aF229.0
aF-328.0
aF-428.0
aF-402.0
aF-166.0
aF-368.0
aF-255.0
aF-261.0
aF-359.0
aF-372.0
aF-359.0
aF-70.0
aF-381.0
aF-359.0
aF-344.0
aF-378.0
aF-54.0
aF-308.0
aF57.0
aF-115.0
aF-172.0
aF-415.0
aF-205.0
aF-179.0
aF-351.0
aF-362.0
aF-9.0
aF-217.0
aF-365.0
aF-262.0
aF-342.0
aF-223.0
aF-370.0
aF-257.0
aF-349.0
aF-423.0
aF-417.0
aF-147.0
aF-209.0
aF-462.0
aF-365.0
aF-211.0
aF-281.0
aF-90.0
aF-411.0
aF-289.0
aF-212.0
aF-287.0
aF-51.0
aF-200.0
aF-339.0
aF-448.0
aF-376.0
aF-410.0
aF-232.0
aF-311.0
aF-361.0
aF173.0
aF-34.0
aF-314.0
aF-374.0
aF-358.0
aF-351.0
aF-357.0
aF-423.0
aF-264.0
aF121.0
aF-310.0
aF-352.0
aF-327.0
aF-464.0
aF-318.0
aF-387.0
aF-315.0
aF-419.0
aF-238.0
aF-316.0
aF67.0
aF-403.0
aF-65.0
aF-305.0
aF-375.0
aF-324.0
aF-353.0
aF-58.0
aF-69.0
aF-269.0
aF-381.0
aF-385.0
aF-348.0
asS'test_scores'
p3
(lp4
F-241.0
aF-112.0
aF-383.0
aF-451.0
aF-448.0
aF-373.0
aF-330.0
aF-51.0
aF-11.0
aF204.0
aF-359.0
aF-401.0
aF-283.0
aF-379.0
aF-461.0
asS'behavior_count'
p5
(dp6
I1
(dp7
S'FleeBehavior'
p8
(lp9
I43
aI2
aI11
aI23
aI46
aI56
aI98
aI28
aI2
aI33
aI53
aI39
aI6
aI1
aI21
aI15
aI41
aI28
aI26
aI56
aI18
aI83
aI20
aI32
aI30
aI19
aI128
aI42
aI86
aI89
aI65
aI11
aI69
aI67
aI29
aI37
aI28
aI61
aI11
aI53
aI10
aI29
aI10
aI25
aI28
aI43
aI15
aI76
aI101
aI30
aI20
aI107
aI45
aI31
aI12
aI10
aI65
aI23
aI12
aI23
aI23
aI18
aI14
aI20
aI49
aI93
aI32
aI71
aI108
aI21
aI36
aI38
aI20
aI23
aI33
aI45
aI81
aI59
aI25
aI21
aI10
aI20
aI9
aI11
aI2
aI11
aI18
aI33
aI7
aI46
aI25
aI33
aI45
aI23
aI29
aI40
aI28
aI28
aI22
aI44
aI71
aI73
aI43
aI41
aI19
aI34
aI21
aI81
aI60
aI76
aI30
aI42
aI53
aI40
aI32
asS'PursueBehavior'
p10
(lp11
I38
aI1
aI5
aI3
aI29
aI68
aI113
aI20
aI0
aI7
aI3
aI2
aI0
aI1
aI4
aI0
aI2
aI3
aI1
aI1
aI1
aI14
aI1
aI4
aI4
aI0
aI30
aI1
aI25
aI5
aI70
aI2
aI33
aI1
aI1
aI1
aI18
aI10
aI4
aI4
aI1
aI4
aI1
aI1
aI2
aI0
aI1
aI4
aI9
aI1
aI1
aI41
aI7
aI97
aI2
aI0
aI15
aI5
aI0
aI19
aI2
aI0
aI2
aI0
aI4
aI6
aI0
aI7
aI15
aI0
aI4
aI1
aI0
aI2
aI1
aI0
aI34
aI38
aI33
aI34
aI44
aI8
aI9
aI23
aI17
aI45
aI55
aI85
aI16
aI55
aI20
aI13
aI0
aI1
aI19
aI5
aI1
aI2
aI1
aI4
aI0
aI0
aI0
aI0
aI0
aI0
aI0
aI0
aI9
aI14
aI0
aI0
aI0
aI0
aI0
asS'SeekBehavior'
p12
(lp13
I13
aI19
aI33
aI0
aI21
aI37
aI10
aI36
aI14
aI55
aI76
aI7
aI2
aI31
aI82
aI4
aI3
aI0
aI2
aI5
aI0
aI13
aI0
aI4
aI0
aI0
aI17
aI15
aI43
aI12
aI7
aI2
aI24
aI1
aI1
aI4
aI63
aI97
aI20
aI66
aI52
aI50
aI10
aI2
aI0
aI0
aI1
aI7
aI30
aI21
aI15
aI63
aI20
aI12
aI68
aI40
aI43
aI9
aI49
aI48
aI4
aI0
aI0
aI0
aI0
aI2
aI0
aI19
aI42
aI14
aI24
aI10
aI1
aI33
aI9
aI59
aI45
aI64
aI4
aI2
aI1
aI1
aI0
aI2
aI0
aI2
aI3
aI5
aI0
aI5
aI0
aI0
aI0
aI0
aI11
aI25
aI0
aI2
aI2
aI0
aI0
aI0
aI0
aI0
aI0
aI0
aI0
aI40
aI22
aI16
aI0
aI0
aI0
aI0
aI0
assI2
(dp14
S'FleeBehavior'
p15
(lp16
I25
aI0
aI1
aI2
aI32
aI70
aI126
aI73
aI0
aI2
aI25
aI16
aI1
aI2
aI10
aI0
aI1
aI1
aI0
aI4
aI5
aI72
aI0
aI2
aI0
aI0
aI19
aI9
aI72
aI31
aI40
aI12
aI45
aI40
aI0
aI2
aI38
aI21
aI26
aI60
aI8
aI14
aI14
aI25
aI23
aI40
aI16
aI71
aI100
aI22
aI3
aI42
aI34
aI47
aI30
aI2
aI9
aI2
aI3
aI2
aI2
aI1
aI0
aI1
aI2
aI10
aI1
aI3
aI4
aI2
aI4
aI2
aI0
aI2
aI0
aI4
aI2
aI1
aI2
aI1
aI0
aI1
aI1
aI1
aI1
aI1
aI3
aI10
aI0
aI42
aI31
aI13
aI7
aI0
aI24
aI5
aI2
aI0
aI0
aI1
aI0
aI0
aI0
aI0
aI0
aI0
aI0
aI0
aI0
aI2
aI0
aI0
aI0
aI0
aI0
asS'PursueBehavior'
p17
(lp18
I30
aI1
aI8
aI24
aI50
aI37
aI19
aI5
aI0
aI24
aI13
aI2
aI0
aI1
aI12
aI1
aI0
aI1
aI1
aI1
aI0
aI6
aI0
aI0
aI1
aI0
aI36
aI2
aI13
aI23
aI43
aI1
aI59
aI22
aI26
aI39
aI66
aI138
aI0
aI40
aI6
aI8
aI1
aI0
aI1
aI2
aI0
aI2
aI4
aI3
aI2
aI49
aI0
aI41
aI2
aI1
aI4
aI1
aI33
aI28
aI0
aI0
aI0
aI0
aI0
aI3
aI1
aI14
aI45
aI0
aI0
aI2
aI0
aI4
aI3
aI37
aI77
aI38
aI3
aI2
aI1
aI3
aI0
aI4
aI0
aI0
aI5
aI34
aI1
aI5
aI2
aI1
aI4
aI0
aI1
aI30
aI2
aI1
aI0
aI0
aI0
aI0
aI0
aI0
aI0
aI0
aI0
aI29
aI13
aI35
aI0
aI0
aI0
aI0
aI0
asS'SeekBehavior'
p19
(lp20
I39
aI21
aI40
aI0
aI13
aI53
aI75
aI6
aI15
aI69
aI93
aI30
aI7
aI30
aI84
aI18
aI44
aI29
aI28
aI57
aI14
aI32
aI21
aI38
aI33
aI19
aI119
aI47
aI68
aI52
aI59
aI2
aI21
aI7
aI5
aI1
aI5
aI8
aI9
aI23
aI49
aI61
aI5
aI3
aI6
aI1
aI1
aI14
aI36
aI27
aI30
aI120
aI38
aI52
aI50
aI46
aI110
aI34
aI25
aI60
aI27
aI17
aI16
aI19
aI51
aI88
aI29
aI80
aI116
aI32
aI60
aI45
aI21
aI51
aI40
aI63
aI80
aI122
aI57
aI54
aI54
aI24
aI17
aI30
aI18
aI57
aI68
aI79
aI22
aI58
aI12
aI32
aI34
aI23
aI34
aI34
aI25
aI31
aI25
aI47
aI71
aI72
aI43
aI41
aI19
aI34
aI21
aI92
aI78
aI69
aI30
aI42
aI53
aI40
aI32
asss.