(dp0
S'learn_scores'
p1
(lp2
F-407.0
aF-455.0
aF-270.0
aF-468.0
aF-376.0
aF-419.0
aF-395.0
aF-428.0
aF-427.0
aF-434.0
aF-430.0
aF-391.0
aF-13.0
aF-458.0
aF-461.0
aF-432.0
aF-407.0
aF-461.0
aF-433.0
aF-325.0
aF-455.0
aF-442.0
aF-388.0
aF-416.0
aF-378.0
aF-212.0
aF-375.0
aF-392.0
aF-422.0
aF-383.0
aF-58.0
aF-436.0
aF-429.0
aF-402.0
aF-451.0
aF-414.0
aF-442.0
aF-453.0
aF-358.0
aF-456.0
aF-411.0
aF-229.0
aF-264.0
aF-368.0
aF-239.0
aF-359.0
aF-439.0
aF-402.0
aF-302.0
aF-489.0
aF-455.0
aF73.0
aF-273.0
aF-417.0
aF-429.0
aF-353.0
aF-446.0
aF-340.0
aF-430.0
aF-398.0
aF-139.0
aF-446.0
aF-435.0
aF-415.0
aF-422.0
aF-393.0
aF-451.0
aF-470.0
aF-420.0
aF-413.0
aF-399.0
aF-355.0
aF-444.0
aF-419.0
aF-393.0
aF-402.0
aF-403.0
aF-252.0
aF-428.0
aF86.0
aF-310.0
aF-412.0
aF-441.0
aF-409.0
aF-384.0
aF-430.0
aF-402.0
aF-454.0
aF-480.0
aF-352.0
aF-429.0
aF-404.0
aF-405.0
aF-439.0
aF-379.0
aF-435.0
aF-377.0
aF-443.0
aF-89.0
aF-396.0
asS'test_scores'
p3
(lp4
F-328.0
aF-405.0
aF-408.0
aF-386.0
aF-403.0
aF-375.0
aF-302.0
aF-445.0
aF-409.0
aF-469.0
aF-407.0
aF-415.0
aF-380.0
aF-307.0
aF-255.0
asS'behavior_count'
p5
(dp6
I1
(dp7
S'FleeBehavior'
p8
(lp9
I7
aI0
aI10
aI4
aI2
aI14
aI38
aI19
aI36
aI33
aI17
aI1
aI8
aI0
aI0
aI1
aI2
aI0
aI0
aI0
aI2
aI1
aI1
aI0
aI3
aI1
aI2
aI0
aI0
aI0
aI10
aI15
aI18
aI11
aI10
aI24
aI11
aI23
aI65
aI16
aI38
aI45
aI12
aI37
aI28
aI0
aI1
aI3
aI0
aI1
aI0
aI16
aI17
aI9
aI0
aI0
aI2
aI3
aI0
aI1
aI20
aI0
aI1
aI1
aI1
aI1
aI0
aI1
aI0
aI0
aI4
aI1
aI0
aI1
aI0
aI3
aI1
aI1
aI0
aI25
aI3
aI1
aI0
aI1
aI0
aI0
aI0
aI2
aI2
aI2
aI0
aI0
aI0
aI0
aI1
aI0
aI1
aI1
aI9
aI0
aI0
aI0
aI0
aI0
aI0
aI0
aI0
aI0
aI0
aI0
aI0
aI0
aI0
aI0
aI0
asS'PursueBehavior'
p10
(lp11
I7
aI15
aI35
aI14
aI24
aI4
aI8
aI0
aI0
aI0
aI0
aI0
aI12
aI17
aI11
aI22
aI15
aI12
aI12
aI34
aI14
aI12
aI25
aI16
aI33
aI70
aI17
aI1
aI2
aI3
aI56
aI1
aI1
aI1
aI0
aI1
aI0
aI0
aI2
aI1
aI2
aI4
aI28
aI11
aI28
aI1
aI2
aI11
aI9
aI18
aI21
aI36
aI28
aI27
aI18
aI23
aI44
aI55
aI19
aI26
aI79
aI17
aI24
aI13
aI31
aI22
aI20
aI17
aI29
aI23
aI33
aI43
aI23
aI29
aI33
aI58
aI33
aI67
aI27
aI68
aI37
aI29
aI22
aI18
aI25
aI21
aI22
aI29
aI18
aI36
aI29
aI23
aI24
aI9
aI29
aI16
aI27
aI22
aI155
aI26
aI49
aI16
aI28
aI16
aI44
aI35
aI73
aI16
aI49
aI20
aI18
aI26
aI21
aI68
aI106
asS'SeekBehavior'
p12
(lp13
I4
aI1
aI6
aI1
aI0
aI1
aI9
aI0
aI1
aI2
aI4
aI31
aI54
aI1
aI0
aI0
aI0
aI0
aI1
aI2
aI0
aI0
aI2
aI1
aI2
aI12
aI27
aI22
aI31
aI41
aI43
aI0
aI0
aI0
aI1
aI0
aI1
aI1
aI2
aI0
aI2
aI1
aI4
aI1
aI23
aI29
aI27
aI19
aI44
aI0
aI5
aI55
aI19
aI1
aI1
aI0
aI0
aI2
aI2
aI1
aI11
aI0
aI1
aI2
aI1
aI0
aI1
aI3
aI2
aI1
aI3
aI1
aI2
aI0
aI1
aI1
aI0
aI14
aI1
aI11
aI0
aI2
aI0
aI0
aI0
aI0
aI0
aI3
aI1
aI4
aI1
aI1
aI1
aI0
aI0
aI0
aI0
aI0
aI6
aI1
aI0
aI0
aI0
aI0
aI0
aI0
aI0
aI0
aI0
aI0
aI0
aI0
aI0
aI0
aI0
assI2
(dp14
S'FleeBehavior'
p15
(lp16
I3
aI0
aI1
aI0
aI2
aI0
aI6
aI2
aI27
aI17
aI12
aI1
aI21
aI17
aI10
aI20
aI15
aI11
aI12
aI24
aI13
aI13
aI25
aI14
aI29
aI42
aI2
aI1
aI1
aI1
aI26
aI0
aI0
aI0
aI0
aI2
aI0
aI1
aI1
aI0
aI2
aI1
aI7
aI3
aI24
aI0
aI1
aI1
aI0
aI1
aI2
aI31
aI7
aI33
aI19
aI21
aI41
aI53
aI15
aI21
aI44
aI0
aI1
aI1
aI3
aI5
aI0
aI3
aI1
aI1
aI1
aI2
aI1
aI0
aI0
aI2
aI3
aI36
aI3
aI24
aI14
aI1
aI0
aI1
aI0
aI1
aI0
aI0
aI0
aI0
aI2
aI1
aI1
aI0
aI1
aI0
aI2
aI0
aI24
aI3
aI0
aI0
aI0
aI0
aI0
aI0
aI0
aI0
aI0
aI0
aI0
aI0
aI0
aI0
aI0
asS'PursueBehavior'
p17
(lp18
I8
aI16
aI49
aI19
aI23
aI15
aI14
aI12
aI2
aI2
aI3
aI3
aI18
aI0
aI1
aI2
aI1
aI1
aI1
aI10
aI1
aI0
aI2
aI2
aI7
aI27
aI13
aI2
aI0
aI1
aI34
aI4
aI10
aI1
aI0
aI1
aI5
aI1
aI18
aI0
aI1
aI4
aI7
aI4
aI52
aI19
aI9
aI3
aI16
aI15
aI12
aI34
aI30
aI0
aI0
aI0
aI0
aI2
aI0
aI0
aI46
aI15
aI11
aI4
aI10
aI17
aI12
aI12
aI18
aI5
aI22
aI29
aI17
aI9
aI9
aI13
aI2
aI38
aI7
aI34
aI8
aI9
aI2
aI5
aI19
aI6
aI0
aI2
aI0
aI2
aI1
aI1
aI0
aI0
aI0
aI0
aI1
aI1
aI12
aI2
aI0
aI0
aI0
aI0
aI0
aI0
aI0
aI0
aI0
aI0
aI0
aI0
aI0
aI0
aI0
asS'SeekBehavior'
p19
(lp20
I7
aI0
aI1
aI0
aI1
aI4
aI35
aI5
aI8
aI15
aI5
aI27
aI34
aI1
aI0
aI0
aI1
aI0
aI0
aI1
aI1
aI0
aI1
aI1
aI2
aI14
aI31
aI20
aI31
aI41
aI48
aI12
aI9
aI11
aI11
aI22
aI7
aI22
aI50
aI16
aI39
aI44
aI30
aI42
aI3
aI11
aI19
aI29
aI36
aI3
aI12
aI42
aI27
aI4
aI0
aI2
aI5
aI5
aI6
aI7
aI20
aI2
aI14
aI11
aI19
aI1
aI9
aI6
aI12
aI17
aI17
aI14
aI7
aI20
aI25
aI47
aI29
aI8
aI18
aI46
aI18
aI22
aI20
aI13
aI6
aI14
aI22
aI32
aI20
aI40
aI26
aI22
aI24
aI9
aI29
aI15
aI25
aI22
aI133
aI21
aI49
aI16
aI28
aI16
aI44
aI35
aI73
aI15
aI49
aI19
aI18
aI25
aI21
aI67
aI105
assI3
(dp21
S'FleeBehavior'
p22
(lp23
I3
aI0
aI1
aI1
aI1
aI6
aI16
aI15
aI34
aI33
aI16
aI26
aI27
aI16
aI11
aI20
aI17
aI8
aI12
aI35
aI14
aI13
aI23
aI15
aI36
aI61
aI2
aI4
aI8
aI0
aI43
aI2
aI2
aI0
aI1
aI0
aI0
aI0
aI0
aI0
aI3
aI0
aI1
aI0
aI22
aI18
aI25
aI3
aI18
aI16
aI21
aI67
aI1
aI2
aI1
aI0
aI3
aI2
aI1
aI2
aI8
aI0
aI1
aI10
aI23
aI3
aI0
aI1
aI1
aI2
aI4
aI9
aI2
aI2
aI2
aI23
aI9
aI23
aI1
aI26
aI23
aI24
aI11
aI3
aI6
aI6
aI0
aI11
aI13
aI35
aI23
aI22
aI21
aI7
aI24
aI13
aI23
aI22
aI138
aI16
aI37
aI13
aI23
aI7
aI42
aI30
aI45
aI11
aI45
aI15
aI17
aI13
aI9
aI42
aI51
asS'PursueBehavior'
p24
(lp25
I9
aI2
aI14
aI0
aI0
aI3
aI11
aI1
aI2
aI0
aI0
aI1
aI8
aI1
aI0
aI1
aI0
aI1
aI0
aI0
aI0
aI0
aI2
aI1
aI0
aI11
aI39
aI8
aI24
aI28
aI39
aI12
aI15
aI10
aI10
aI20
aI4
aI16
aI51
aI0
aI2
aI8
aI12
aI36
aI11
aI10
aI2
aI22
aI17
aI0
aI3
aI18
aI20
aI10
aI0
aI0
aI5
aI31
aI9
aI23
aI67
aI11
aI15
aI1
aI3
aI11
aI20
aI18
aI24
aI19
aI17
aI17
aI13
aI11
aI15
aI1
aI9
aI40
aI5
aI60
aI5
aI1
aI0
aI2
aI12
aI3
aI0
aI1
aI1
aI2
aI4
aI0
aI1
aI0
aI3
aI0
aI0
aI1
aI8
aI2
aI0
aI0
aI0
aI0
aI0
aI0
aI0
aI0
aI0
aI0
aI0
aI0
aI0
aI0
aI0
asS'SeekBehavior'
p26
(lp27
I5
aI13
aI36
aI18
aI25
aI10
aI28
aI3
aI1
aI1
aI4
aI4
aI38
aI1
aI0
aI1
aI0
aI3
aI1
aI0
aI1
aI0
aI3
aI1
aI2
aI10
aI4
aI11
aI0
aI15
aI26
aI2
aI2
aI2
aI0
aI5
aI8
aI8
aI18
aI16
aI37
aI41
aI31
aI13
aI46
aI1
aI2
aI8
aI17
aI3
aI2
aI22
aI43
aI25
aI18
aI23
aI38
aI27
aI10
aI3
aI35
aI6
aI10
aI5
aI6
aI9
aI1
aI1
aI5
aI2
aI19
aI19
aI10
aI16
aI16
aI38
aI15
aI19
aI22
aI18
aI12
aI7
aI11
aI14
aI7
aI12
aI22
aI22
aI6
aI5
aI2
aI2
aI3
aI2
aI2
aI2
aI4
aI0
aI23
aI8
aI12
aI2
aI5
aI9
aI1
aI5
aI28
aI4
aI4
aI4
aI0
aI12
aI12
aI25
aI54
assI4
(dp28
S'FleeBehavior'
p29
(lp30
I3
aI0
aI1
aI1
aI2
aI2
aI6
aI2
aI3
aI3
aI1
aI3
aI14
aI14
aI0
aI0
aI1
aI0
aI2
aI3
aI0
aI1
aI1
aI0
aI0
aI11
aI40
aI20
aI29
aI36
aI92
aI1
aI2
aI0
aI0
aI1
aI0
aI1
aI2
aI0
aI1
aI3
aI0
aI5
aI29
aI0
aI3
aI1
aI2
aI0
aI0
aI25
aI5
aI2
aI0
aI1
aI1
aI1
aI0
aI1
aI9
aI4
aI0
aI0
aI0
aI0
aI0
aI0
aI0
aI0
aI2
aI1
aI1
aI4
aI2
aI7
aI1
aI9
aI0
aI3
aI20
aI2
aI2
aI1
aI1
aI0
aI1
aI1
aI1
aI0
aI1
aI0
aI2
aI1
aI0
aI1
aI0
aI1
aI24
aI1
aI0
aI0
aI0
aI0
aI0
aI0
aI0
aI0
aI0
aI0
aI0
aI0
aI0
aI0
aI0
asS'PursueBehavior'
p31
(lp32
I8
aI14
aI39
aI1
aI0
aI1
aI16
aI1
aI2
aI31
aI19
aI26
aI46
aI1
aI0
aI0
aI0
aI1
aI0
aI1
aI1
aI0
aI1
aI0
aI2
aI17
aI2
aI2
aI2
aI5
aI7
aI14
aI16
aI12
aI11
aI23
aI12
aI22
aI65
aI8
aI28
aI11
aI36
aI13
aI29
aI24
aI24
aI30
aI46
aI19
aI25
aI70
aI41
aI12
aI0
aI4
aI2
aI4
aI0
aI1
aI4
aI2
aI22
aI0
aI0
aI2
aI0
aI0
aI0
aI0
aI2
aI3
aI1
aI1
aI2
aI5
aI0
aI2
aI1
aI9
aI1
aI2
aI0
aI1
aI2
aI1
aI1
aI3
aI1
aI0
aI1
aI1
aI0
aI1
aI1
aI0
aI1
aI1
aI2
aI1
aI0
aI0
aI0
aI0
aI0
aI0
aI0
aI0
aI0
aI0
aI0
aI0
aI0
aI0
aI0
asS'SeekBehavior'
p33
(lp34
I6
aI1
aI10
aI16
aI24
aI16
aI33
aI15
aI32
aI0
aI0
aI2
aI13
aI3
aI11
aI22
aI16
aI10
aI11
aI31
aI14
aI12
aI26
aI17
aI36
aI54
aI3
aI1
aI1
aI2
aI9
aI1
aI1
aI0
aI0
aI0
aI0
aI0
aI2
aI8
aI12
aI35
aI8
aI30
aI21
aI5
aI2
aI1
aI4
aI0
aI0
aI12
aI18
aI23
aI19
aI18
aI43
aI55
aI20
aI26
aI97
aI10
aI4
aI15
aI32
aI21
aI21
aI20
aI30
aI23
aI35
aI41
aI22
aI24
aI29
aI50
aI32
aI71
aI27
aI92
aI19
aI28
aI19
aI17
aI21
aI20
aI20
aI30
aI18
aI42
aI27
aI23
aI23
aI7
aI28
aI14
aI26
aI21
aI143
aI24
aI48
aI15
aI28
aI16
aI43
aI35
aI72
aI15
aI49
aI19
aI17
aI25
aI20
aI67
aI105
asss.