(dp0
S'learn_scores'
p1
(lp2
F-392.0
aF-404.0
aF-386.0
aF-255.0
aF-48.0
aF-397.0
aF-345.0
aF-419.0
aF-419.0
aF-359.0
aF-396.0
aF-408.0
aF-253.0
aF-462.0
aF-420.0
aF-422.0
aF-339.0
aF-311.0
aF-394.0
aF-426.0
aF-457.0
aF-281.0
aF-358.0
aF-384.0
aF-404.0
aF-446.0
aF244.0
aF-401.0
aF-283.0
aF-423.0
aF-367.0
aF-250.0
aF-465.0
aF-431.0
aF17.0
aF-418.0
aF-335.0
aF-372.0
aF-422.0
aF-414.0
aF-375.0
aF-86.0
aF-99.0
aF-422.0
aF-399.0
aF-374.0
aF-304.0
aF-400.0
aF-446.0
aF-341.0
aF-924.0
aF-428.0
aF-339.0
aF182.0
aF-44.0
aF-413.0
aF-177.0
aF-270.0
aF67.0
aF-426.0
aF-244.0
aF-419.0
aF-347.0
aF-430.0
aF-324.0
aF-375.0
aF-343.0
aF-419.0
aF-352.0
aF-331.0
aF-368.0
aF-395.0
aF-50.0
aF-427.0
aF-394.0
aF-389.0
aF306.0
aF-3.0
aF-423.0
aF-375.0
aF-362.0
aF-445.0
aF-457.0
aF-394.0
aF-430.0
aF-443.0
aF-457.0
aF-10.0
aF-72.0
aF-383.0
aF-431.0
aF-369.0
aF-460.0
aF-309.0
aF-321.0
aF25.0
aF-350.0
aF-361.0
aF-452.0
aF-256.0
asS'test_scores'
p3
(lp4
F-409.0
aF-343.0
aF-368.0
aF-349.0
aF-418.0
aF-179.0
aF-333.0
aF-406.0
aF-363.0
aF-383.0
aF20.0
aF-343.0
aF-399.0
aF-441.0
aF-428.0
asS'behavior_count'
p5
(dp6
I1
(dp7
S'FleeBehavior'
p8
(lp9
I4
aI0
aI0
aI1
aI12
aI3
aI23
aI1
aI0
aI0
aI0
aI1
aI3
aI2
aI4
aI1
aI0
aI1
aI0
aI2
aI1
aI3
aI2
aI2
aI0
aI2
aI40
aI20
aI7
aI3
aI1
aI36
aI0
aI0
aI29
aI0
aI1
aI2
aI0
aI0
aI0
aI17
aI23
aI0
aI1
aI1
aI0
aI0
aI0
aI1
aI0
aI1
aI0
aI1
aI37
aI0
aI4
aI1
aI19
aI1
aI1
aI1
aI0
aI2
aI0
aI0
aI3
aI0
aI1
aI0
aI1
aI1
aI5
aI0
aI0
aI3
aI40
aI2
aI0
aI0
aI0
aI0
aI1
aI3
aI1
aI2
aI2
aI6
aI5
aI0
aI0
aI1
aI2
aI1
aI1
aI10
aI2
aI2
aI1
aI2
aI0
aI0
aI0
aI0
aI0
aI0
aI0
aI0
aI0
aI0
aI4
aI0
aI0
aI0
aI0
asS'PursueBehavior'
p10
(lp11
I5
aI14
aI25
aI42
aI46
aI0
aI0
aI0
aI1
aI1
aI2
aI3
aI2
aI5
aI0
aI1
aI1
aI2
aI0
aI1
aI4
aI3
aI3
aI0
aI0
aI1
aI4
aI11
aI35
aI8
aI16
aI30
aI35
aI18
aI124
aI17
aI53
aI23
aI33
aI11
aI23
aI20
aI24
aI0
aI2
aI0
aI1
aI0
aI0
aI3
aI0
aI0
aI1
aI0
aI2
aI2
aI4
aI1
aI9
aI18
aI1
aI0
aI0
aI1
aI1
aI1
aI1
aI0
aI0
aI3
aI2
aI0
aI32
aI2
aI1
aI7
aI2
aI13
aI1
aI8
aI5
aI13
aI25
aI53
aI15
aI20
aI15
aI52
aI7
aI1
aI1
aI3
aI3
aI1
aI2
aI3
aI1
aI2
aI0
aI2
aI0
aI0
aI0
aI0
aI0
aI0
aI0
aI0
aI0
aI0
aI0
aI0
aI0
aI0
aI0
asS'SeekBehavior'
p12
(lp13
I4
aI0
aI1
aI2
aI21
aI15
aI12
aI8
aI8
aI18
aI35
aI14
aI99
aI25
aI16
aI10
aI19
aI38
aI15
aI13
aI42
aI36
aI23
aI22
aI14
aI13
aI53
aI0
aI1
aI2
aI0
aI4
aI1
aI4
aI21
aI12
aI1
aI8
aI0
aI4
aI3
aI29
aI32
aI12
aI16
aI14
aI33
aI20
aI16
aI18
aI14
aI7
aI28
aI37
aI26
aI21
aI70
aI38
aI36
aI18
aI33
aI9
aI18
aI18
aI23
aI15
aI50
aI10
aI31
aI28
aI46
aI25
aI34
aI16
aI24
aI129
aI43
aI49
aI12
aI8
aI27
aI3
aI1
aI19
aI4
aI12
aI31
aI23
aI40
aI32
aI21
aI16
aI65
aI37
aI29
aI52
aI27
aI28
aI22
aI52
aI20
aI24
aI38
aI30
aI18
aI79
aI24
aI47
aI43
aI54
aI167
aI23
aI30
aI21
aI8
assI2
(dp14
S'FleeBehavior'
p15
(lp16
I4
aI5
aI24
aI32
aI25
aI18
aI32
aI9
aI8
aI16
aI33
aI17
aI81
aI2
aI17
aI12
aI15
aI14
aI0
aI0
aI6
aI1
aI7
aI21
aI14
aI15
aI74
aI1
aI11
aI1
aI0
aI7
aI2
aI1
aI68
aI4
aI28
aI10
aI1
aI1
aI1
aI19
aI40
aI1
aI2
aI1
aI2
aI0
aI1
aI1
aI0
aI0
aI0
aI7
aI19
aI0
aI8
aI19
aI25
aI30
aI17
aI0
aI0
aI2
aI0
aI0
aI4
aI1
aI2
aI1
aI3
aI2
aI36
aI1
aI0
aI6
aI43
aI21
aI0
aI1
aI0
aI0
aI0
aI3
aI2
aI0
aI0
aI7
aI5
aI2
aI1
aI1
aI3
aI1
aI2
aI31
aI1
aI1
aI0
aI9
aI0
aI0
aI0
aI0
aI0
aI40
aI0
aI0
aI0
aI0
aI40
aI0
aI0
aI0
aI0
asS'PursueBehavior'
p17
(lp18
I5
aI9
aI2
aI12
aI42
aI0
aI2
aI0
aI1
aI3
aI1
aI0
aI21
aI30
aI2
aI0
aI4
aI26
aI14
aI16
aI40
aI38
aI20
aI1
aI0
aI1
aI22
aI28
aI31
aI11
aI16
aI61
aI34
aI21
aI100
aI23
aI27
aI21
aI31
aI13
aI24
aI46
aI38
aI11
aI17
aI14
aI32
aI17
aI15
aI21
aI14
aI7
aI29
aI30
aI45
aI22
aI66
aI21
aI37
aI7
aI15
aI9
aI18
aI19
aI24
aI15
aI49
aI9
aI30
aI29
aI44
aI21
aI28
aI17
aI20
aI74
aI30
aI11
aI7
aI14
aI30
aI6
aI3
aI21
aI5
aI9
aI26
aI20
aI0
aI11
aI16
aI19
aI22
aI37
aI25
aI21
aI25
aI29
aI22
aI33
aI14
aI21
aI27
aI12
aI5
aI26
aI13
aI18
aI25
aI31
aI105
aI13
aI23
aI13
aI8
asS'SeekBehavior'
p19
(lp20
I4
aI0
aI0
aI1
aI12
aI0
aI1
aI0
aI0
aI0
aI2
aI1
aI2
aI0
aI1
aI0
aI1
aI1
aI1
aI0
aI1
aI3
aI1
aI2
aI0
aI0
aI1
aI2
aI1
aI1
aI1
aI2
aI0
aI0
aI6
aI2
aI0
aI2
aI1
aI0
aI1
aI1
aI1
aI0
aI0
aI0
aI0
aI3
aI0
aI0
aI0
aI1
aI0
aI1
aI1
aI1
aI3
aI0
aI2
aI0
aI2
aI1
aI0
aI0
aI0
aI1
aI1
aI0
aI0
aI1
aI2
aI2
aI7
aI0
aI5
aI59
aI11
aI32
aI6
aI1
aI2
aI10
aI24
aI51
aI13
aI25
aI22
aI54
aI47
aI20
aI5
aI0
aI45
aI1
aI5
aI13
aI4
aI1
aI1
aI14
aI6
aI3
aI11
aI18
aI13
aI13
aI11
aI29
aI18
aI22
aI26
aI10
aI7
aI8
aI0
assI3
(dp21
S'FleeBehavior'
p22
(lp23
I3
aI0
aI1
aI3
aI45
aI0
aI1
aI1
aI2
aI1
aI1
aI0
aI5
aI1
aI0
aI0
aI1
aI1
aI0
aI1
aI2
aI1
aI0
aI0
aI0
aI0
aI5
aI2
aI4
aI1
aI2
aI20
aI22
aI15
aI62
aI2
aI20
aI0
aI0
aI0
aI0
aI2
aI4
aI1
aI1
aI0
aI0
aI0
aI2
aI0
aI0
aI0
aI0
aI1
aI1
aI1
aI2
aI1
aI1
aI0
aI0
aI0
aI0
aI1
aI0
aI0
aI0
aI1
aI4
aI0
aI1
aI3
aI2
aI1
aI2
aI41
aI21
aI11
aI1
aI0
aI2
aI2
aI0
aI8
aI1
aI1
aI0
aI20
aI4
aI12
aI4
aI0
aI26
aI1
aI3
aI2
aI1
aI1
aI0
aI5
aI0
aI0
aI0
aI0
aI0
aI0
aI0
aI0
aI0
aI0
aI0
aI0
aI0
aI0
aI0
asS'PursueBehavior'
p24
(lp25
I3
aI1
aI2
aI0
aI22
aI17
aI32
aI8
aI7
aI18
aI35
aI18
aI95
aI30
aI20
aI11
aI17
aI40
aI14
aI15
aI45
aI40
aI28
aI24
aI14
aI16
aI84
aI29
aI38
aI12
aI14
aI49
aI13
aI6
aI100
aI26
aI23
aI32
aI32
aI13
aI25
aI50
aI62
aI11
aI18
aI13
aI33
aI19
aI14
aI21
aI13
aI8
aI28
aI34
aI58
aI22
aI72
aI38
aI43
aI35
aI31
aI8
aI15
aI18
aI23
aI15
aI53
aI7
aI28
aI28
aI48
aI22
aI35
aI15
aI21
aI96
aI32
aI17
aI11
aI16
aI29
aI12
aI27
aI63
aI19
aI32
aI46
aI53
aI27
aI21
aI18
aI19
aI40
aI36
aI28
aI38
aI29
aI27
aI22
aI49
aI19
aI23
aI38
aI30
aI18
aI40
aI24
aI47
aI43
aI53
aI146
aI23
aI30
aI21
aI8
asS'SeekBehavior'
p26
(lp27
I6
aI13
aI23
aI42
aI12
aI1
aI2
aI0
aI0
aI0
aI0
aI0
aI3
aI1
aI0
aI1
aI2
aI0
aI0
aI0
aI0
aI0
aI0
aI0
aI0
aI0
aI7
aI0
aI1
aI0
aI1
aI1
aI1
aI1
aI12
aI1
aI12
aI1
aI1
aI1
aI0
aI14
aI13
aI0
aI0
aI1
aI1
aI1
aI0
aI0
aI1
aI0
aI1
aI3
aI5
aI0
aI3
aI1
aI20
aI1
aI3
aI1
aI2
aI1
aI1
aI1
aI1
aI1
aI0
aI3
aI0
aI0
aI33
aI1
aI2
aI2
aI31
aI36
aI1
aI0
aI1
aI2
aI0
aI4
aI0
aI0
aI2
aI8
aI21
aI0
aI0
aI0
aI4
aI2
aI1
aI25
aI0
aI3
aI0
aI2
aI0
aI0
aI0
aI0
aI0
aI39
aI0
aI0
aI0
aI0
aI25
aI0
aI0
aI0
aI0
assI4
(dp28
S'FleeBehavior'
p29
(lp30
I4
aI0
aI0
aI1
aI9
aI3
aI0
aI0
aI0
aI0
aI2
aI0
aI5
aI1
aI1
aI0
aI1
aI0
aI2
aI0
aI2
aI2
aI2
aI1
aI1
aI0
aI3
aI22
aI34
aI13
aI15
aI31
aI33
aI21
aI126
aI21
aI45
aI3
aI30
aI14
aI24
aI24
aI41
aI10
aI18
aI13
aI32
aI17
aI12
aI20
aI14
aI7
aI26
aI36
aI61
aI20
aI74
aI38
aI55
aI34
aI34
aI9
aI17
aI18
aI22
aI15
aI49
aI9
aI30
aI30
aI47
aI25
aI34
aI16
aI23
aI128
aI48
aI30
aI12
aI15
aI31
aI14
aI25
aI67
aI19
aI24
aI8
aI62
aI18
aI2
aI6
aI0
aI1
aI4
aI3
aI22
aI4
aI0
aI1
aI9
aI1
aI3
aI2
aI11
aI0
aI4
aI10
aI3
aI2
aI0
aI26
aI1
aI2
aI0
aI0
asS'PursueBehavior'
p31
(lp32
I5
aI14
aI25
aI39
aI54
aI14
aI33
aI8
aI9
aI18
aI34
aI18
aI95
aI30
aI18
aI12
aI17
aI40
aI12
aI15
aI43
aI36
aI25
aI22
aI11
aI16
aI66
aI1
aI4
aI0
aI1
aI3
aI3
aI0
aI16
aI6
aI9
aI29
aI2
aI0
aI1
aI13
aI3
aI1
aI0
aI1
aI1
aI2
aI1
aI1
aI0
aI0
aI2
aI0
aI3
aI2
aI3
aI1
aI5
aI0
aI0
aI0
aI0
aI1
aI1
aI0
aI1
aI0
aI2
aI0
aI1
aI0
aI34
aI0
aI1
aI8
aI20
aI18
aI1
aI0
aI1
aI2
aI1
aI4
aI0
aI9
aI40
aI11
aI24
aI31
aI15
aI19
aI40
aI34
aI29
aI33
aI26
aI30
aI19
aI46
aI18
aI20
aI36
aI18
aI18
aI38
aI13
aI44
aI41
aI53
aI113
aI22
aI28
aI21
aI8
asS'SeekBehavior'
p33
(lp34
I3
aI0
aI1
aI5
aI15
aI0
aI2
aI1
aI0
aI1
aI0
aI0
aI3
aI1
aI1
aI0
aI1
aI1
aI0
aI1
aI2
aI3
aI1
aI1
aI2
aI0
aI27
aI8
aI5
aI0
aI1
aI36
aI0
aI0
aI31
aI1
aI1
aI1
aI0
aI0
aI0
aI29
aI35
aI1
aI1
aI0
aI1
aI1
aI3
aI0
aI0
aI1
aI1
aI2
aI0
aI1
aI0
aI1
aI3
aI2
aI0
aI0
aI0
aI1
aI1
aI0
aI3
aI0
aI0
aI1
aI1
aI0
aI2
aI1
aI1
aI3
aI16
aI16
aI0
aI0
aI0
aI0
aI1
aI3
aI1
aI0
aI0
aI7
aI10
aI0
aI1
aI0
aI29
aI1
aI0
aI10
aI0
aI1
aI2
aI1
aI0
aI0
aI0
aI0
aI0
aI37
aI0
aI0
aI0
aI0
aI32
aI0
aI0
aI0
aI0
asss.