(dp0
S'learn_scores'
p1
(lp2
F-392.0
aF-204.0
aF-321.0
aF-364.0
aF-422.0
aF-408.0
aF-445.0
aF-286.0
aF384.0
aF-323.0
aF-273.0
aF-393.0
aF-283.0
aF-416.0
aF-222.0
aF-345.0
aF-290.0
aF-313.0
aF-423.0
aF-390.0
aF-393.0
aF-450.0
aF-398.0
aF-389.0
aF-428.0
aF-116.0
aF-272.0
aF-420.0
aF-59.0
aF-367.0
aF-432.0
aF-383.0
aF-329.0
aF-446.0
aF-458.0
aF-336.0
aF-441.0
aF-351.0
aF-395.0
aF273.0
aF-352.0
aF-312.0
aF-330.0
aF-384.0
aF-262.0
aF-344.0
aF-392.0
aF-348.0
aF-320.0
aF-288.0
aF-298.0
aF-72.0
aF-463.0
aF-401.0
aF-37.0
aF-311.0
aF-73.0
aF-374.0
aF-235.0
aF-410.0
aF-394.0
aF-95.0
aF-398.0
aF-366.0
aF-423.0
aF-384.0
aF-193.0
aF-329.0
aF-411.0
aF-372.0
aF-336.0
aF-287.0
aF87.0
aF-314.0
aF-342.0
aF-428.0
aF-312.0
aF-377.0
aF-277.0
aF-437.0
aF-375.0
aF-331.0
aF-400.0
aF-381.0
aF-366.0
aF-432.0
aF-431.0
aF-384.0
aF-379.0
aF-422.0
aF-367.0
aF-361.0
aF-401.0
aF-290.0
aF-405.0
aF-301.0
aF431.0
aF-418.0
aF-402.0
aF-284.0
asS'test_scores'
p3
(lp4
F-311.0
aF-419.0
aF-366.0
aF-371.0
aF-291.0
aF-387.0
aF-360.0
aF-392.0
aF-320.0
aF-420.0
aF-403.0
aF-412.0
aF291.0
aF-39.0
aF-205.0
asS'behavior_count'
p5
(dp6
I1
(dp7
S'FleeBehavior'
p8
(lp9
I4
aI36
aI29
aI5
aI30
aI25
aI13
aI7
aI9
aI2
aI13
aI13
aI31
aI31
aI94
aI16
aI34
aI30
aI4
aI7
aI27
aI18
aI17
aI17
aI17
aI55
aI34
aI4
aI3
aI1
aI1
aI14
aI4
aI2
aI1
aI5
aI14
aI17
aI5
aI43
aI5
aI19
aI20
aI23
aI39
aI22
aI11
aI37
aI55
aI13
aI31
aI11
aI1
aI2
aI0
aI7
aI14
aI2
aI8
aI3
aI3
aI9
aI14
aI31
aI6
aI12
aI40
aI12
aI9
aI18
aI26
aI42
aI43
aI31
aI28
aI8
aI26
aI10
aI32
aI7
aI14
aI38
aI25
aI19
aI11
aI9
aI2
aI8
aI16
aI9
aI21
aI16
aI16
aI30
aI15
aI40
aI86
aI35
aI11
aI25
aI2
aI3
aI10
aI17
aI18
aI3
aI2
aI3
aI4
aI2
aI7
aI2
aI2
aI3
aI15
asS'PursueBehavior'
p10
(lp11
I3
aI67
aI0
aI0
aI3
aI6
aI3
aI27
aI18
aI21
aI27
aI0
aI1
aI0
aI16
aI8
aI4
aI1
aI1
aI1
aI0
aI0
aI1
aI2
aI1
aI6
aI3
aI1
aI23
aI0
aI1
aI1
aI0
aI0
aI1
aI0
aI2
aI0
aI1
aI15
aI0
aI0
aI1
aI2
aI3
aI1
aI2
aI0
aI4
aI2
aI8
aI59
aI12
aI18
aI71
aI32
aI58
aI12
aI36
aI7
aI20
aI65
aI3
aI4
aI8
aI1
aI33
aI16
aI3
aI3
aI0
aI2
aI11
aI3
aI4
aI1
aI3
aI1
aI2
aI0
aI1
aI2
aI2
aI2
aI1
aI0
aI1
aI1
aI4
aI1
aI0
aI1
aI2
aI1
aI0
aI0
aI31
aI2
aI2
aI6
aI0
aI0
aI0
aI0
aI0
aI0
aI0
aI0
aI0
aI0
aI0
aI0
aI40
aI20
aI0
asS'SeekBehavior'
p12
(lp13
I6
aI22
aI2
aI20
aI0
aI7
aI0
aI3
aI20
aI0
aI3
aI0
aI1
aI5
aI22
aI1
aI3
aI2
aI8
aI12
aI7
aI2
aI0
aI0
aI0
aI25
aI6
aI25
aI64
aI27
aI10
aI28
aI16
aI25
aI26
aI21
aI25
aI4
aI9
aI19
aI18
aI23
aI0
aI0
aI1
aI1
aI0
aI1
aI2
aI13
aI0
aI3
aI1
aI1
aI7
aI2
aI2
aI1
aI2
aI0
aI2
aI1
aI2
aI2
aI0
aI2
aI1
aI1
aI0
aI2
aI1
aI3
aI19
aI0
aI1
aI0
aI3
aI7
aI3
aI1
aI0
aI1
aI4
aI1
aI4
aI4
aI9
aI6
aI50
aI22
aI7
aI4
aI4
aI19
aI1
aI2
aI22
aI1
aI0
aI3
aI20
aI7
aI6
aI35
aI34
aI14
aI18
aI9
aI46
aI18
aI27
aI21
aI18
aI27
aI80
assI2
(dp14
S'FleeBehavior'
p15
(lp16
I4
aI45
aI0
aI1
aI0
aI2
aI0
aI3
aI28
aI23
aI28
aI0
aI0
aI1
aI10
aI0
aI0
aI0
aI0
aI0
aI0
aI1
aI1
aI0
aI0
aI27
aI2
aI28
aI61
aI26
aI11
aI42
aI20
aI25
aI26
aI24
aI39
aI20
aI14
aI71
aI17
aI25
aI19
aI23
aI20
aI17
aI12
aI37
aI53
aI26
aI35
aI50
aI0
aI1
aI24
aI7
aI29
aI13
aI38
aI6
aI4
aI38
aI0
aI2
aI0
aI3
aI6
aI2
aI1
aI1
aI0
aI0
aI3
aI1
aI2
aI6
aI15
aI5
aI1
aI0
aI0
aI1
aI1
aI0
aI0
aI0
aI0
aI1
aI5
aI0
aI2
aI0
aI1
aI2
aI0
aI3
aI19
aI0
aI1
aI0
aI0
aI0
aI0
aI0
aI0
aI0
aI0
aI0
aI0
aI0
aI0
aI0
aI40
aI19
aI0
asS'PursueBehavior'
p17
(lp18
I3
aI5
aI1
aI0
aI1
aI8
aI1
aI2
aI5
aI0
aI12
aI1
aI1
aI2
aI28
aI3
aI1
aI0
aI0
aI1
aI2
aI1
aI7
aI0
aI0
aI29
aI38
aI0
aI4
aI1
aI1
aI1
aI0
aI1
aI1
aI2
aI2
aI1
aI0
aI2
aI2
aI1
aI1
aI0
aI2
aI0
aI0
aI1
aI4
aI0
aI1
aI3
aI1
aI1
aI6
aI0
aI3
aI0
aI1
aI0
aI1
aI4
aI0
aI0
aI2
aI0
aI1
aI3
aI5
aI6
aI18
aI25
aI37
aI8
aI16
aI0
aI0
aI3
aI3
aI0
aI2
aI0
aI0
aI2
aI1
aI0
aI0
aI0
aI5
aI1
aI1
aI1
aI2
aI2
aI1
aI0
aI5
aI1
aI0
aI1
aI0
aI0
aI0
aI0
aI0
aI2
aI2
aI0
aI22
aI3
aI19
aI7
aI10
aI9
aI42
asS'SeekBehavior'
p19
(lp20
I6
aI74
aI30
aI24
aI32
aI28
aI15
aI32
aI14
aI0
aI3
aI12
aI32
aI33
aI94
aI22
aI40
aI33
aI13
aI19
aI32
aI18
aI10
aI19
aI18
aI30
aI3
aI2
aI25
aI1
aI0
aI0
aI0
aI1
aI1
aI0
aI0
aI0
aI1
aI4
aI4
aI16
aI1
aI2
aI20
aI7
aI1
aI0
aI3
aI2
aI3
aI20
aI13
aI19
aI48
aI34
aI41
aI2
aI7
aI4
aI20
aI33
aI19
aI35
aI12
aI12
aI67
aI24
aI6
aI16
aI9
aI22
aI33
aI25
aI15
aI3
aI17
aI10
aI33
aI8
aI13
aI40
aI30
aI20
aI15
aI13
aI12
aI13
aI60
aI31
aI24
aI20
aI19
aI46
aI15
aI38
aI115
aI37
aI12
aI33
aI22
aI10
aI16
aI52
aI52
aI15
aI18
aI12
aI28
aI17
aI15
aI15
aI9
aI22
aI53
assI3
(dp21
S'FleeBehavior'
p22
(lp23
I3
aI4
aI1
aI0
aI0
aI15
aI14
aI31
aI20
aI4
aI27
aI1
aI1
aI0
aI17
aI2
aI0
aI0
aI0
aI0
aI0
aI0
aI0
aI0
aI0
aI4
aI1
aI3
aI30
aI21
aI0
aI1
aI0
aI1
aI2
aI2
aI3
aI1
aI0
aI4
aI2
aI0
aI1
aI1
aI1
aI1
aI0
aI2
aI1
aI0
aI2
aI3
aI0
aI1
aI2
aI0
aI7
aI0
aI2
aI0
aI2
aI6
aI0
aI0
aI0
aI0
aI3
aI2
aI0
aI0
aI1
aI2
aI2
aI2
aI1
aI0
aI1
aI1
aI1
aI0
aI0
aI3
aI1
aI0
aI0
aI1
aI0
aI0
aI2
aI2
aI1
aI0
aI1
aI1
aI0
aI2
aI14
aI4
aI0
aI4
aI0
aI0
aI0
aI0
aI0
aI0
aI0
aI0
aI0
aI0
aI0
aI0
aI17
aI19
aI0
asS'PursueBehavior'
p24
(lp25
I4
aI42
aI29
aI23
aI31
aI19
aI1
aI2
aI11
aI2
aI6
aI11
aI32
aI34
aI95
aI22
aI35
aI32
aI12
aI14
aI15
aI20
aI18
aI18
aI16
aI60
aI26
aI5
aI25
aI1
aI0
aI2
aI6
aI2
aI0
aI5
aI5
aI2
aI1
aI11
aI14
aI41
aI20
aI21
aI34
aI11
aI1
aI12
aI16
aI2
aI16
aI32
aI11
aI18
aI47
aI24
aI38
aI6
aI25
aI2
aI5
aI50
aI10
aI27
aI7
aI0
aI12
aI11
aI1
aI10
aI17
aI6
aI15
aI0
aI3
aI5
aI23
aI10
aI24
aI1
aI0
aI5
aI16
aI4
aI2
aI6
aI9
aI8
aI30
aI5
aI10
aI0
aI2
aI13
aI6
aI28
aI74
aI16
aI1
aI1
aI0
aI0
aI0
aI0
aI0
aI0
aI0
aI0
aI0
aI0
aI0
aI0
aI0
aI0
aI0
asS'SeekBehavior'
p26
(lp27
I5
aI78
aI1
aI1
aI1
aI4
aI1
aI4
aI16
aI17
aI10
aI1
aI0
aI2
aI20
aI1
aI5
aI1
aI1
aI6
aI18
aI0
aI0
aI1
aI2
aI22
aI15
aI22
aI34
aI6
aI12
aI40
aI13
aI23
aI26
aI19
aI33
aI18
aI14
aI62
aI6
aI1
aI0
aI2
aI7
aI12
aI11
aI24
aI43
aI26
aI21
aI38
aI2
aI2
aI29
aI17
aI28
aI9
aI18
aI8
aI17
aI19
aI9
aI10
aI7
aI15
aI59
aI16
aI11
aI12
aI9
aI39
aI56
aI32
aI29
aI4
aI8
aI6
aI12
aI6
aI15
aI33
aI14
aI18
aI14
aI5
aI2
aI6
aI38
aI25
aI16
aI21
aI18
aI36
aI10
aI11
aI51
aI18
aI12
aI29
aI22
aI9
aI16
aI52
aI52
aI17
aI20
aI12
aI50
aI20
aI34
aI22
aI42
aI30
aI95
assI4
(dp28
S'FleeBehavior'
p29
(lp30
I3
aI4
aI2
aI0
aI3
aI4
aI14
aI33
aI26
aI21
aI31
aI1
aI0
aI0
aI13
aI4
aI34
aI30
aI0
aI1
aI2
aI0
aI0
aI0
aI2
aI11
aI2
aI28
aI63
aI24
aI12
aI40
aI16
aI26
aI24
aI23
aI37
aI3
aI0
aI19
aI14
aI35
aI2
aI0
aI6
aI12
aI0
aI2
aI5
aI2
aI2
aI12
aI0
aI2
aI28
aI0
aI11
aI2
aI0
aI0
aI1
aI8
aI0
aI1
aI1
aI1
aI5
aI4
aI0
aI0
aI2
aI0
aI5
aI17
aI25
aI8
aI25
aI17
aI34
aI5
aI13
aI37
aI27
aI14
aI15
aI12
aI11
aI13
aI64
aI25
aI26
aI18
aI19
aI47
aI12
aI38
aI100
aI37
aI9
aI32
aI20
aI8
aI13
aI50
aI47
aI17
aI19
aI12
aI50
aI20
aI30
aI22
aI58
aI44
aI85
asS'PursueBehavior'
p31
(lp32
I5
aI100
aI29
aI23
aI28
aI32
aI2
aI1
aI9
aI2
aI7
aI1
aI0
aI1
aI36
aI17
aI3
aI0
aI0
aI1
aI1
aI1
aI0
aI0
aI1
aI7
aI9
aI2
aI12
aI1
aI0
aI0
aI3
aI0
aI1
aI1
aI4
aI15
aI14
aI45
aI6
aI7
aI18
aI23
aI34
aI12
aI11
aI35
aI53
aI25
aI34
aI11
aI11
aI3
aI13
aI4
aI36
aI12
aI39
aI2
aI1
aI38
aI0
aI2
aI7
aI10
aI44
aI23
aI10
aI22
aI23
aI46
aI37
aI17
aI4
aI1
aI7
aI0
aI3
aI2
aI2
aI2
aI1
aI7
aI0
aI0
aI0
aI1
aI3
aI4
aI1
aI3
aI1
aI2
aI2
aI2
aI21
aI1
aI4
aI1
aI2
aI1
aI3
aI2
aI4
aI0
aI1
aI0
aI0
aI0
aI4
aI0
aI1
aI5
aI10
asS'SeekBehavior'
p33
(lp34
I4
aI20
aI0
aI1
aI1
aI2
aI0
aI2
aI11
aI0
aI5
aI11
aI33
aI35
aI83
aI4
aI3
aI3
aI13
aI18
aI30
aI19
aI18
aI19
aI15
aI68
aI31
aI0
aI14
aI2
aI0
aI3
aI0
aI0
aI3
aI2
aI0
aI3
aI1
aI13
aI2
aI0
aI0
aI1
aI2
aI0
aI1
aI1
aI2
aI1
aI3
aI50
aI2
aI16
aI37
aI37
aI26
aI1
aI6
aI8
aI22
aI29
aI19
aI34
aI5
aI3
aI25
aI2
aI1
aI0
aI1
aI1
aI31
aI0
aI4
aI0
aI0
aI0
aI0
aI0
aI0
aI2
aI2
aI0
aI1
aI0
aI0
aI0
aI2
aI3
aI0
aI0
aI1
aI1
aI2
aI1
aI18
aI0
aI0
aI1
aI0
aI0
aI0
aI0
aI0
aI0
aI0
aI0
aI0
aI0
aI0
aI0
aI0
aI0
aI0
asss.