(dp0
S'learn_scores'
p1
(lp2
F113.0
aF1318.0
aF1714.0
aF1502.0
aF642.0
aF1901.0
aF1472.0
aF47.0
aF1916.0
aF800.0
aF1728.0
aF273.0
aF699.0
aF1488.0
aF1524.0
aF1741.0
aF622.0
aF611.0
aF1699.0
aF1727.0
aF301.0
aF1728.0
aF97.0
aF2113.0
aF1490.0
aF1334.0
aF1730.0
aF181.0
aF707.0
aF1717.0
aF166.0
aF715.0
aF1936.0
aF276.0
aF782.0
aF1730.0
aF-414.0
aF144.0
aF282.0
aF307.0
aF441.0
aF1656.0
aF428.0
aF1910.0
aF-306.0
aF706.0
aF-28.0
aF1502.0
aF479.0
aF1301.0
aF2114.0
aF260.0
aF1534.0
aF1519.0
aF825.0
aF-51.0
aF617.0
aF1066.0
aF-50.0
aF1879.0
aF1874.0
aF-345.0
aF429.0
aF345.0
aF1498.0
aF-284.0
aF361.0
aF-85.0
aF439.0
aF1689.0
aF-255.0
aF1502.0
aF-117.0
aF283.0
aF1712.0
aF1534.0
aF1489.0
aF253.0
aF-26.0
aF4.0
aF1722.0
aF2.0
aF341.0
aF485.0
aF-191.0
aF-392.0
aF180.0
aF-109.0
aF1323.0
aF1666.0
aF1283.0
aF485.0
aF485.0
aF1705.0
aF1506.0
aF354.0
aF-115.0
aF1717.0
aF1693.0
aF1928.0
asS'test_scores'
p3
(lp4
F1331.0
aF1727.0
aF-315.0
aF1507.0
aF1518.0
aF1540.0
aF1294.0
aF334.0
aF1515.0
aF207.0
aF1520.0
aF1529.0
aF2134.0
aF1710.0
aF1696.0
asS'behavior_count'
p5
(dp6
I1
(dp7
S'FleeBehavior'
p8
(lp9
I32
aI60
aI18
aI45
aI33
aI41
aI117
aI40
aI50
aI24
aI43
aI43
aI67
aI60
aI4
aI51
aI44
aI8
aI7
aI3
aI12
aI36
aI4
aI43
aI134
aI87
aI98
aI44
aI66
aI32
aI20
aI17
aI14
aI10
aI48
aI83
aI12
aI71
aI61
aI10
aI17
aI28
aI34
aI31
aI21
aI60
aI3
aI19
aI62
aI78
aI73
aI7
aI6
aI4
aI57
aI4
aI100
aI114
aI51
aI116
aI73
aI3
aI21
aI45
aI40
aI14
aI58
aI13
aI61
aI117
aI1
aI28
aI3
aI5
aI38
aI23
aI16
aI42
aI26
aI10
aI38
aI3
aI2
aI17
aI13
aI10
aI45
aI0
aI23
aI23
aI40
aI63
aI36
aI56
aI85
aI32
aI59
aI71
aI144
aI83
aI42
aI66
aI25
aI107
aI74
aI60
aI114
aI82
aI57
aI63
aI113
aI105
aI86
aI99
aI107
asS'PursueBehavior'
p10
(lp11
I27
aI60
aI74
aI44
aI51
aI81
aI15
aI16
aI46
aI67
aI52
aI23
aI35
aI63
aI86
aI50
aI48
aI32
aI68
aI73
aI24
aI48
aI70
aI57
aI22
aI10
aI35
aI0
aI39
aI101
aI1
aI35
aI15
aI43
aI40
aI7
aI0
aI3
aI3
aI0
aI82
aI99
aI7
aI44
aI0
aI11
aI53
aI86
aI50
aI32
aI68
aI59
aI105
aI74
aI70
aI26
aI24
aI53
aI30
aI42
aI14
aI4
aI32
aI54
aI63
aI11
aI35
aI13
aI35
aI1
aI0
aI47
aI37
aI63
aI116
aI81
aI58
aI102
aI34
aI25
aI94
aI45
aI92
aI82
aI0
aI0
aI53
aI52
aI110
aI130
aI104
aI72
aI96
aI78
aI67
aI40
aI3
aI50
aI28
aI30
aI80
aI62
aI0
aI34
aI58
aI57
aI51
aI29
aI85
aI95
aI23
aI36
aI50
aI61
aI66
asS'SeekBehavior'
p12
(lp13
I19
aI32
aI64
aI79
aI45
aI47
aI66
aI38
aI58
aI120
aI47
aI32
aI50
aI59
aI56
aI28
aI87
aI60
aI96
aI67
aI44
aI58
aI60
aI57
aI24
aI39
aI7
aI26
aI38
aI20
aI54
aI94
aI105
aI31
aI31
aI50
aI2
aI42
aI64
aI83
aI50
aI87
aI112
aI85
aI6
aI64
aI52
aI63
aI20
aI59
aI15
aI15
aI25
aI73
aI69
aI2
aI20
aI28
aI0
aI33
aI109
aI19
aI59
aI26
aI69
aI0
aI47
aI0
aI36
aI63
aI35
aI93
aI8
aI49
aI4
aI32
aI107
aI24
aI7
aI2
aI16
aI1
aI15
aI57
aI29
aI3
aI23
aI8
aI14
aI51
aI43
aI10
aI44
aI31
aI12
aI15
aI4
aI32
aI5
aI29
aI17
aI15
aI1
aI22
aI20
aI13
aI11
aI16
aI13
aI16
aI14
aI0
aI0
aI0
aI1
assI2
(dp14
S'FleeBehavior'
p15
(lp16
I24
aI40
aI58
aI51
aI60
aI65
aI77
aI28
aI71
aI41
aI57
aI63
aI27
aI19
aI5
aI32
aI18
aI27
aI26
aI19
aI15
aI52
aI4
aI8
aI29
aI40
aI47
aI0
aI29
aI24
aI24
aI32
aI33
aI6
aI16
aI21
aI0
aI1
aI16
aI5
aI7
aI114
aI74
aI82
aI18
aI50
aI95
aI144
aI75
aI30
aI81
aI71
aI102
aI73
aI77
aI15
aI11
aI30
aI5
aI32
aI55
aI23
aI76
aI31
aI64
aI7
aI43
aI14
aI76
aI26
aI2
aI20
aI11
aI9
aI27
aI36
aI122
aI56
aI21
aI1
aI20
aI11
aI38
aI87
aI32
aI3
aI38
aI5
aI33
aI49
aI50
aI36
aI76
aI63
aI37
aI38
aI2
aI22
aI7
aI9
aI0
aI7
aI0
aI0
aI0
aI1
aI0
aI0
aI0
aI0
aI0
aI0
aI0
aI0
aI0
asS'PursueBehavior'
p17
(lp18
I19
aI58
aI70
aI81
aI50
aI62
aI86
aI23
aI42
aI25
aI36
aI4
aI12
aI15
aI2
aI16
aI27
aI6
aI1
aI6
aI33
aI40
aI31
aI22
aI19
aI26
aI48
aI67
aI40
aI20
aI4
aI9
aI2
aI5
aI13
aI6
aI3
aI12
aI29
aI12
aI21
aI31
aI53
aI22
aI0
aI40
aI10
aI19
aI12
aI24
aI52
aI3
aI4
aI9
aI35
aI4
aI44
aI39
aI12
aI72
aI21
aI2
aI5
aI6
aI15
aI2
aI26
aI6
aI21
aI48
aI0
aI3
aI1
aI7
aI28
aI28
aI24
aI28
aI10
aI2
aI16
aI1
aI6
aI6
aI2
aI0
aI28
aI8
aI14
aI45
aI24
aI55
aI29
aI18
aI45
aI25
aI58
aI82
aI97
aI22
aI9
aI34
aI5
aI56
aI45
aI63
aI137
aI102
aI80
aI107
aI132
aI105
aI112
aI120
aI135
asS'SeekBehavior'
p19
(lp20
I35
aI54
aI28
aI36
aI19
aI42
aI35
aI43
aI41
aI145
aI49
aI31
aI113
aI148
aI139
aI81
aI133
aI67
aI144
aI118
aI31
aI50
aI99
aI127
aI132
aI70
aI45
aI3
aI74
aI109
aI46
aI105
aI99
aI73
aI89
aI113
aI11
aI103
aI83
aI76
aI121
aI69
aI26
aI56
aI9
aI45
aI3
aI5
aI45
aI115
aI23
aI7
aI30
aI69
aI84
aI13
aI88
aI125
aI63
aI87
aI120
aI1
aI31
aI88
aI93
aI16
aI71
aI5
aI35
aI107
aI34
aI145
aI36
aI101
aI103
aI72
aI35
aI84
aI35
aI33
aI112
aI37
aI65
aI62
aI8
aI10
aI55
aI47
aI100
aI110
aI113
aI54
aI71
aI84
aI82
aI23
aI6
aI49
aI73
aI111
aI130
aI102
aI21
aI107
aI107
aI66
aI39
aI25
aI75
aI67
aI18
aI36
aI24
aI40
aI39
assI3
(dp21
S'FleeBehavior'
p22
(lp23
I36
aI51
aI52
aI88
aI40
aI92
aI16
aI23
aI39
aI65
aI46
aI50
aI24
aI46
aI72
aI55
aI122
aI81
aI77
aI74
aI29
aI79
aI80
aI104
aI84
aI51
aI73
aI20
aI93
aI114
aI53
aI108
aI52
aI35
aI35
aI44
aI4
aI48
aI35
aI62
aI96
aI143
aI86
aI117
aI13
aI73
aI96
aI118
aI73
aI45
aI71
aI58
aI111
aI107
aI118
aI31
aI50
aI102
aI61
aI101
aI91
aI10
aI72
aI45
aI81
aI2
aI53
aI8
aI75
aI90
aI34
aI125
aI29
aI52
aI87
aI63
aI110
aI69
aI29
aI20
aI109
aI46
aI85
aI140
aI25
aI5
aI36
aI31
aI82
aI127
aI87
aI45
aI54
aI90
aI60
aI47
aI4
aI52
aI42
aI58
aI101
aI70
aI8
aI51
aI68
aI57
aI40
aI22
aI79
aI80
aI19
aI45
aI48
aI73
aI44
asS'PursueBehavior'
p24
(lp25
I13
aI60
aI18
aI33
aI25
aI60
aI73
aI45
aI82
aI129
aI58
aI23
aI88
aI97
aI69
aI47
aI15
aI9
aI82
aI46
aI24
aI26
aI51
aI35
aI50
aI31
aI25
aI29
aI21
aI7
aI0
aI5
aI11
aI24
aI29
aI14
aI1
aI13
aI46
aI27
aI40
aI28
aI13
aI15
aI5
aI16
aI8
aI17
aI16
aI42
aI18
aI9
aI23
aI37
aI33
aI0
aI60
aI85
aI4
aI46
aI31
aI7
aI16
aI6
aI19
aI3
aI6
aI1
aI8
aI20
aI1
aI24
aI3
aI4
aI30
aI10
aI5
aI12
aI20
aI1
aI6
aI0
aI4
aI9
aI0
aI2
aI13
aI1
aI5
aI11
aI5
aI6
aI29
aI6
aI20
aI3
aI9
aI35
aI43
aI13
aI5
aI8
aI3
aI2
aI16
aI5
aI42
aI14
aI22
aI39
aI25
aI0
aI2
aI7
aI30
asS'SeekBehavior'
p26
(lp27
I29
aI41
aI86
aI47
aI63
aI17
aI109
aI25
aI33
aI17
aI38
aI25
aI39
aI39
aI5
aI27
aI41
aI9
aI12
aI23
aI26
aI37
aI3
aI18
aI46
aI54
aI42
aI21
aI29
aI32
aI21
aI33
aI71
aI25
aI54
aI82
aI9
aI55
aI47
aI4
aI13
aI43
aI54
aI28
aI9
aI46
aI4
aI33
aI42
aI82
aI67
aI13
aI2
aI7
aI44
aI0
aI33
aI7
aI15
aI44
aI74
aI9
aI24
aI74
aI72
aI20
aI80
aI16
aI49
aI71
aI1
aI19
aI16
aI61
aI41
aI63
aI66
aI87
aI17
aI15
aI33
aI2
aI20
aI6
aI17
aI6
aI72
aI28
aI60
aI66
aI95
aI94
aI92
aI69
aI84
aI36
aI53
aI66
aI92
aI71
aI33
aI65
aI15
aI110
aI68
aI68
aI94
aI91
aI54
aI55
aI106
aI96
aI86
aI80
aI100
asss.