(dp0
S'learn_scores'
p1
(lp2
F-320.0
aF-304.0
aF-263.0
aF-376.0
aF-322.0
aF-422.0
aF-386.0
aF-411.0
aF-426.0
aF-438.0
aF-112.0
aF-422.0
aF-321.0
aF-303.0
aF-142.0
aF-344.0
aF-376.0
aF-449.0
aF-292.0
aF-260.0
aF-425.0
aF359.0
aF-374.0
aF-206.0
aF8.0
aF-328.0
aF-365.0
aF-465.0
aF-361.0
aF-209.0
aF-324.0
aF-356.0
aF-132.0
aF5.0
aF-80.0
aF-160.0
aF-177.0
aF-182.0
aF-318.0
aF-425.0
aF-324.0
aF-349.0
aF-214.0
aF-426.0
aF-9.0
aF-394.0
aF-272.0
aF-305.0
aF-223.0
aF-449.0
aF-332.0
aF-290.0
aF-380.0
aF-378.0
aF-283.0
aF-448.0
aF-391.0
aF-441.0
aF-250.0
aF-371.0
aF328.0
aF-330.0
aF-282.0
aF-355.0
aF-400.0
aF-308.0
aF-355.0
aF-407.0
aF-426.0
aF-373.0
aF-72.0
aF-268.0
aF-361.0
aF-256.0
aF-131.0
aF-192.0
aF-359.0
aF-345.0
aF-445.0
aF-323.0
aF-362.0
aF-330.0
aF-342.0
aF-349.0
aF-168.0
aF-46.0
aF-300.0
aF10.0
aF-377.0
aF-353.0
aF-409.0
aF-438.0
aF-97.0
aF-132.0
aF-304.0
aF-218.0
aF-398.0
aF-297.0
aF-355.0
aF-314.0
asS'test_scores'
p3
(lp4
F-202.0
aF-332.0
aF-440.0
aF-44.0
aF-394.0
aF-422.0
aF54.0
aF-261.0
aF-262.0
aF-413.0
aF-304.0
aF-326.0
aF-294.0
aF-360.0
aF-269.0
asS'behavior_count'
p5
(dp6
I1
(dp7
S'FleeBehavior'
p8
(lp9
I14
aI23
aI33
aI32
aI44
aI12
aI16
aI18
aI43
aI34
aI33
aI9
aI29
aI31
aI63
aI49
aI12
aI18
aI37
aI13
aI3
aI49
aI1
aI22
aI10
aI39
aI15
aI33
aI30
aI56
aI80
aI30
aI48
aI84
aI71
aI89
aI12
aI26
aI19
aI15
aI42
aI28
aI43
aI15
aI85
aI15
aI110
aI25
aI98
aI17
aI23
aI27
aI29
aI19
aI55
aI18
aI20
aI30
aI33
aI39
aI72
aI39
aI50
aI24
aI37
aI41
aI35
aI66
aI80
aI29
aI160
aI29
aI20
aI80
aI96
aI83
aI26
aI35
aI14
aI33
aI31
aI80
aI59
aI37
aI228
aI127
aI44
aI75
aI46
aI67
aI35
aI23
aI81
aI31
aI19
aI16
aI16
aI18
aI16
aI21
aI88
aI19
aI13
aI29
aI23
aI36
aI53
aI55
aI30
aI18
aI17
aI17
aI34
aI8
aI26
asS'PursueBehavior'
p10
(lp11
I30
aI40
aI14
aI4
aI55
aI1
aI1
aI2
aI1
aI2
aI10
aI2
aI1
aI2
aI28
aI4
aI43
aI1
aI21
aI56
aI22
aI29
aI1
aI22
aI19
aI8
aI0
aI2
aI0
aI1
aI3
aI3
aI25
aI69
aI65
aI19
aI5
aI28
aI39
aI9
aI0
aI1
aI1
aI1
aI12
aI0
aI1
aI0
aI11
aI1
aI0
aI2
aI1
aI0
aI8
aI1
aI0
aI2
aI36
aI2
aI25
aI2
aI1
aI1
aI0
aI7
aI1
aI1
aI1
aI3
aI6
aI0
aI2
aI0
aI10
aI28
aI2
aI0
aI1
aI1
aI0
aI2
aI1
aI1
aI10
aI51
aI11
aI21
aI10
aI5
aI4
aI23
aI52
aI55
aI0
aI2
aI1
aI3
aI49
aI4
aI65
aI4
aI18
aI31
aI21
aI46
aI31
aI57
aI22
aI6
aI37
aI20
aI11
aI13
aI24
asS'SeekBehavior'
p12
(lp13
I6
aI22
aI16
aI0
aI4
aI0
aI0
aI1
aI2
aI3
aI19
aI1
aI1
aI0
aI21
aI1
aI1
aI0
aI44
aI2
aI0
aI14
aI43
aI52
aI34
aI1
aI0
aI1
aI1
aI3
aI1
aI3
aI20
aI2
aI14
aI33
aI51
aI28
aI0
aI1
aI2
aI0
aI0
aI0
aI22
aI0
aI1
aI1
aI5
aI2
aI0
aI1
aI1
aI0
aI0
aI0
aI1
aI0
aI2
aI1
aI56
aI0
aI2
aI1
aI3
aI0
aI0
aI1
aI6
aI1
aI7
aI0
aI0
aI6
aI5
aI41
aI2
aI1
aI1
aI0
aI1
aI39
aI3
aI1
aI50
aI48
aI25
aI95
aI2
aI2
aI0
aI3
aI4
aI67
aI16
aI71
aI2
aI17
aI11
aI0
aI0
aI0
aI0
aI5
aI0
aI0
aI12
aI0
aI0
aI0
aI0
aI0
aI0
aI0
aI0
assI2
(dp14
S'FleeBehavior'
p15
(lp16
I17
aI40
aI8
aI3
aI34
aI12
aI16
aI19
aI45
aI37
aI52
aI11
aI29
aI32
aI81
aI51
aI52
aI18
aI63
aI64
aI24
aI61
aI27
aI61
aI23
aI18
aI11
aI15
aI22
aI37
aI13
aI32
aI51
aI87
aI68
aI38
aI41
aI53
aI30
aI23
aI42
aI28
aI40
aI15
aI76
aI13
aI103
aI23
aI95
aI19
aI21
aI28
aI29
aI19
aI58
aI19
aI20
aI31
aI67
aI40
aI100
aI37
aI51
aI24
aI38
aI46
aI31
aI63
aI66
aI31
aI84
aI24
aI19
aI73
aI91
aI82
aI14
aI28
aI15
aI27
aI29
aI33
aI48
aI34
aI184
aI153
aI51
aI92
aI34
aI55
aI22
aI46
aI124
aI80
aI33
aI37
aI18
aI36
aI47
aI16
aI109
aI23
aI30
aI37
aI34
aI57
aI60
aI75
aI43
aI24
aI48
aI29
aI27
aI18
aI38
asS'PursueBehavior'
p17
(lp18
I20
aI21
aI4
aI4
aI14
aI0
aI0
aI2
aI0
aI1
aI3
aI1
aI0
aI0
aI7
aI0
aI1
aI0
aI37
aI4
aI0
aI9
aI10
aI20
aI34
aI1
aI0
aI0
aI2
aI0
aI4
aI1
aI37
aI24
aI8
aI88
aI16
aI24
aI21
aI0
aI2
aI1
aI3
aI0
aI26
aI1
aI6
aI3
aI10
aI1
aI1
aI1
aI1
aI0
aI4
aI0
aI1
aI0
aI3
aI0
aI48
aI0
aI0
aI1
aI0
aI2
aI1
aI1
aI4
aI0
aI6
aI1
aI1
aI0
aI5
aI41
aI2
aI2
aI0
aI0
aI0
aI4
aI3
aI2
aI42
aI37
aI3
aI83
aI9
aI16
aI8
aI1
aI9
aI43
aI1
aI41
aI0
aI2
aI3
aI3
aI0
aI0
aI0
aI0
aI0
aI0
aI0
aI0
aI0
aI0
aI0
aI0
aI0
aI0
aI0
asS'SeekBehavior'
p19
(lp20
I13
aI23
aI51
aI29
aI55
aI1
aI1
aI0
aI1
aI1
aI7
aI0
aI2
aI1
aI24
aI3
aI3
aI1
aI2
aI3
aI1
aI22
aI8
aI15
aI5
aI29
aI4
aI21
aI7
aI22
aI67
aI3
aI5
aI44
aI74
aI15
aI11
aI5
aI7
aI2
aI0
aI0
aI1
aI1
aI17
aI0
aI3
aI0
aI9
aI0
aI0
aI1
aI0
aI0
aI1
aI0
aI0
aI1
aI1
aI1
aI4
aI3
aI2
aI1
aI2
aI0
aI3
aI3
aI16
aI2
aI83
aI3
aI1
aI13
aI15
aI29
aI14
aI6
aI1
aI7
aI3
aI84
aI12
aI3
aI62
aI36
aI26
aI16
aI14
aI2
aI9
aI1
aI4
aI30
aI1
aI10
aI1
aI0
aI26
aI5
aI44
aI0
aI0
aI27
aI10
aI25
aI36
aI37
aI9
aI0
aI6
aI8
aI18
aI3
aI11
asss.